(dp1
S'output'
p2
S"<type 'exceptions.NameError'> name 'picture_name' is not defined"
p3
sS'layer'
p4
S'C:\\Users\\bryant\\Desktop\\web2py_src\\web2py\\applications\\start1\\views\\default/boards.html'
p5
sS'code'
p6
S'response.write(\'<!DOCTYPE html>\\n<!--[if (gt IE 9)|!(IE)]><!--> <html class="no-js" lang="\', escape=False)\nresponse.write(T.accepted_language or \'en\')\nresponse.write(\'"> <!--<![endif]-->\\n  <head>\\n    <meta charset="utf-8">\\n    <!-- www.phpied.com/conditional-comments-block-downloads/ -->\\n    <!-- Always force latest IE rendering engine\\n         (even in intranet) & Chrome Frame\\n         Remove this if you use the .htaccess -->\\n    <meta http-equiv="X-UA-Compatible" content="IE=edge\', escape=False)\nresponse.write(not request.is_local and \',chrome=1\' or \'\')\nresponse.write(\'">\\n    <!--  Mobile Viewport Fix\\n          j.mp/mobileviewport & davidbcalhoun.com/2010/viewport-metatag\\n          device-width: Occupy full width of the screen in its current orientation\\n          initial-scale = 1.0 retains dimensions instead of zooming out if page height > device height\\n          user-scalable = yes allows the user to zoom in -->\\n    <meta name="viewport" content="width=device-width, initial-scale=1.0">\\n    <title>\', escape=False)\nresponse.write(response.title or request.application)\nresponse.write(\'</title>\\n    <!-- http://dev.w3.org/html5/markup/meta.name.html -->\\n    <meta name="application-name" content="\', escape=False)\nresponse.write(request.application)\nresponse.write(\'">\\n    <!-- Speaking of Google, don\\\'t forget to set your site up:\\n         http://google.com/webmasters -->\\n    <meta name="google-site-verification" content="">\\n    <!-- include stylesheets -->\\n    <link rel="stylesheet" href="\', escape=False)\nresponse.write(URL(\'static\',\'css/bootstrap.min.css\'))\nresponse.write(\'"/>\\n    <link rel="stylesheet" href="\', escape=False)\nresponse.write(URL(\'static\',\'css/bootstrap-theme.min.css\'))\nresponse.write(\'"/>\\n    <link rel="stylesheet" href="\', escape=False)\nresponse.write(URL(\'static\',\'css/web2py-bootstrap3.css\'))\nresponse.write(\'"/>\\n    <link rel="stylesheet" href="\', escape=False)\nresponse.write(URL(\'static\',\'css/myapp.css\'))\nresponse.write(\'"/>\\n    <link rel="stylesheet" href="\', escape=False)\nresponse.write(URL(\'static\', \'font-awesome-4.4.0/css/font-awesome.min.css\'))\nresponse.write(\'"/>\\n    <link rel="shortcut icon" href="\', escape=False)\nresponse.write(URL(\'static\',\'images/favicon.ico\'))\nresponse.write(\'" type="image/x-icon">\\n    <link rel="apple-touch-icon" href="\', escape=False)\nresponse.write(URL(\'static\',\'images/favicon.png\'))\nresponse.write(\'">\\n    <!-- All JavaScript at the bottom, except for Modernizr which enables\\n         HTML5 elements & feature detects -->\\n    <script src="\', escape=False)\nresponse.write(URL(\'static\',\'js/modernizr-2.8.3.min.js\'))\nresponse.write(\'"></script>\\n    <!--[if lt IE 9]>\\n        <script src="\', escape=False)\nresponse.write(URL(\'static\',\'js/respond-1.4.2.min.js\'))\nresponse.write(\'"></script>\\n        <![endif]-->\\n    <!-- Favicons -->\\n    \', escape=False)\nresponse.write(\'<script type="text/javascript"><!--\\n    // These variables are used by the web2py_ajax_init function in web2py_ajax.js (which is loaded below).\\n    var w2p_ajax_confirm_message = "\', escape=False)\nresponse.write(T(\'Are you sure you want to delete this object?\'))\nresponse.write(\'";\\n    var w2p_ajax_disable_with_message = "\', escape=False)\nresponse.write(T(\'Working...\'))\nresponse.write(\'";\\n    var w2p_ajax_date_format = "\', escape=False)\nresponse.write(T(\'%Y-%m-%d\'))\nresponse.write(\'";\\n    var w2p_ajax_datetime_format = "\', escape=False)\nresponse.write(T(\'%Y-%m-%d %H:%M:%S\'))\nresponse.write(\'";\\n    var ajax_error_500 = \\\'\', escape=False)\nresponse.write(T.M(\'An error occured, please [[reload %s]] the page\') % URL(args=request.args, vars=request.get_vars))\nresponse.write("\'\\n    //--></script>\\n", escape=False)\nresponse.files.insert(0,URL(\'static\',\'js/jquery.js\'))\nresponse.files.insert(1,URL(\'static\',\'css/calendar.css\'))\nresponse.files.insert(2,URL(\'static\',\'js/calendar.js\'))\nresponse.files.insert(3,URL(\'static\',\'js/web2py.js\'))\nresponse.include_meta()\nresponse.include_files()\nresponse.write(\'\\n\', escape=False)\nresponse.write(\' <!-- this includes jquery.js, calendar.js/.css and web2py.js -->\\n    \', escape=False)\nresponse.write(\'\\n    \', escape=False)\n# using sidebars need to know what sidebar you want to use\nmc0 = \'col-md-12\'\nmc1 = \'col-md-9\'\nmc2 = \'col-md-6\'\nleft_sidebar_enabled = globals().get(\'left_sidebar_enabled\', False)\nright_sidebar_enabled = globals().get(\'right_sidebar_enabled\', False)\nmiddle_column = {0: mc0, 1: mc1, 2: mc2}[\n(left_sidebar_enabled and 1 or 0)+(right_sidebar_enabled and 1 or 0)]\nresponse.write(\'\\n  </head>\\n  <body>\\n    <!--[if lt IE 8]><p class="browserupgrade">You are using an <strong>outdated</strong> browser. Please <a href="http://browsehappy.com/">upgrade your browser</a> to improve your experience.</p><![endif]-->\\n    <div class="flash alert alert-dismissable">\', escape=False)\nresponse.write(response.flash or \'\')\nresponse.write(\'</div>\\n    <!-- Navbar ======================================= -->\\n    <nav class="navbar navbar-inverse navbar-fixed-top" role="navigation">\\n      <div class="container-fluid">\\n        <div class="navbar-header">\\n          <button type="button" class="navbar-toggle" data-toggle="collapse" data-target=".navbar-collapse">\\n            <span class="sr-only">Toggle navigation</span>\\n            <span class="icon-bar"></span>\\n            <span class="icon-bar"></span>\\n            <span class="icon-bar"></span>\\n          </button>\\n          \', escape=False)\nresponse.write(response.logo or \'\')\nresponse.write(\'\\n        </div>\\n        <div class="collapse navbar-collapse navbar-ex1-collapse">\\n          <ul class="nav navbar-nav navbar-right">\\n            \', escape=False)\nresponse.write(\'auth\' in globals() and auth.navbar(\'Welcome\',mode=\'dropdown\') or \'\')\nresponse.write(\'\\n          </ul>\\n          \', escape=False)\nif response.menu:\n    response.write(\'\\n          \', escape=False)\n    response.write(MENU(response.menu, _class=\'nav navbar-nav\',li_class=\'dropdown\',ul_class=\'dropdown-menu\'))\n    response.write(\'\\n          \', escape=False)\n    pass\nresponse.write(\'\\n        </div>\\n      </div>\\n    </nav>\\n    <!-- Masthead ===================================== -->\\n    \', escape=False)\nresponse.write(\'\\n    \', escape=False)\nresponse.write(\'\\n    <!-- Main ========================================= -->\\n    <!-- Begin page content -->\\n    <div class="container-fluid main-container">\\n      \', escape=False)\nif left_sidebar_enabled:\n    response.write(\'\\n        <div class="col-md-3 left-sidebar">\\n            \', escape=False)\n    response.write(\'\\n            <h3>Left Sidebar</h3>\\n            <p></p>\\n            \', escape=False)\n    response.write(\'\\n        </div>\\n      \', escape=False)\n    pass\nresponse.write(\'\\n\\n      <div class="\', escape=False)\nresponse.write(middle_column)\nresponse.write(\'">\\n        \', escape=False)\nresponse.write(\'\\n        \', escape=False)\nresponse.write(\'\\n\\n<h1>\', escape=False)\nresponse.write(title)\nresponse.write(\'</h1>\\n<h3><i>\', escape=False)\nresponse.write(subtitle)\nresponse.write(\'</i></h3>\\n\\n<div id="target"></div>\\n\\n<script id="template" type="text/ractive">\\n\\n  {% #if form_vis === true %}\\n  <div id="write_msg" intro=\\\'fade\\\' outro=\\\'fade\\\'>\\n    <form action="#" class="form-horizontal" enctype="multipart/form-data" method="post">\\n      <div class="form-group" id="no_table_message__row">\\n\\n        <label class="control-label col-sm-3" for="no_table_message" id="no_table_message__label"> Title </label>\\n        <div class="col-sm-9">\\n          <textarea value="{% active_draft_name %}" class="text form-control" cols="40" id="no_table_message" name="title" rows="10">\\n          </textarea>\\n          <span class="help-block"></span>\\n        </div>\\n\\n        <label class="control-label col-sm-3" for="no_table_message" id="no_table_message__label"> Message </label>\\n        <div class="col-sm-9">\\n          <textarea value="{% active_draft_desc %}" class="text form-control" cols="40" id="no_table_message" name="message" rows="10">\\n          </textarea>\\n          <span class="help-block"></span>\\n        </div>\\n\\n        <div class="form-group" id="messages_image__row"><label class="control-label col-sm-3" for="messages_image" id="messages_image__label">\\n        Image</label><div class="col-sm-9">\\n        <input class="upload input-file" id="messages_image" name="image" type="file">\\n        <span class="help-block"></span></div></div>\\n\\n        <div class="form-group" id="board_image__row"><label class="control-label col-sm-3" for="board_image" id="board_image__label">\\n        Image</label><div class="col-sm-9">\\n        <input class="upload input-file" id="board_image" name="image" type="file">\\n        <span class="help-block"></span></div></div>\\n\\n\\n        <div class="form-group" id="submit_record__row">\\n          <div class="col-sm-9 col-sm-offset-3">\\n            <input class="btn btn-primary" type="submit" value="Submit" on-click="send-msg"/>\\n            <input class="btn btn-primary" type="cancel" value="Cancel" on-click="cancel-edit"/>\\n          </div>\\n        </div>\\n      </div>\\n    </form>\\n  </div>\\n  {% /if %}\\n\\n  <div class="content_header">\\n    <div id="item_creation" class="lfloat">\\n      <a class="button" href=\', escape=False)\nresponse.write(URL(\'default\', \'index\'))\nresponse.write(\'>\', escape=False)\nresponse.write(icon_circle_arrow_left)\nresponse.write(\' Boards</a>\\n      \', escape=False)\nif auth.user_id is None:\n    response.write(\'\\n      \', escape=False)\nelse:\n    response.write(\'\\n      <a class="button" id="button_write" on-click="create-message">\', escape=False)\n    response.write(icon_plus)\n    response.write(\' Create Post</a>\\n      \', escape=False)\n    pass\nresponse.write(\'\\n    </div>\\n    <div id="main_login" class="rfloat">\\n      {% #if del_vis === true %}\\n      <a class="button delete" intro=\\\'fade\\\' outro=\\\'fade\\\' on-click="delete-messages"><i class="fa fa-trash-o"></i>&nbsp;&nbsp;DELETE</a>\\n      {% /if %}\\n      \', escape=False)\nif auth.user_id is None:\n    response.write(\'\\n      \', escape=False)\n    response.write(A(\'Sign Up\', _class=\'button\', _href=URL(\'default\', \'user\', args=[\'register\'])))\n    response.write(\'\\n      \', escape=False)\n    response.write(A(\'Sign In\', _class=\'button\', _href=URL(\'default\', \'user\', args=[\'login\'])))\n    response.write(\'\\n      \', escape=False)\nelse:\n    response.write(\'\\n      \', escape=False)\n    response.write(A(\'Sign Out\', _class=\'button\', _href=URL(\'default\', \'user\', args=[\'logout\'])))\n    response.write(\'\\n      \', escape=False)\n    pass\nresponse.write(\'\\n    </div>\\n  </div>\\n\\n  <div class="message-wrapper">\\n    {% #if msg_len < 1 %}\\n      {% #if (page > 0) && (totalmessages <= 0) %}\\n      <span>SOMETHING BAD HAPPENED!</span>\\n      {% /if %}\\n      <span>No posts.</span>\\n    {% /if %}\\n    {% #msg_dict:iter %}\\n    <div class="message-box lfloat">\\n      <div class="message-date lfloat">\\n        Last edit: {% msg_time %}\\n      </div>\\n      {% #if user_id === creator %}\\n      <div class="message-editors rfloat">\\n      {% #if (typeof marked_boards !== \\\'undefined\\\') && (marked_boards.indexOf(id) >= 0)%}\\n        <a id="message-edit"><i class="fa fa-pencil" data-msgid={% id %} on-click="edit-msg"/></a>\\n        <a id="msg-delete"><i class="fa fa-times selected" data-msgid={% id %} on-click="mark-msg"/></a>\\n      {% else %}\\n        <a id="message-edit"><i class="fa fa-pencil" data-msgid={% id %} on-click="edit-msg"/></a>\\n        <a id="msg-delete"><i class="fa fa-times" data-msgid={% id %} on-click="mark-msg"/></a>\\n      {% /if %}\\n      </div>\\n      {% /if %}\\n      <div class="message-header">\\n        {% msg_title %}\\n      </div>\\n      <div class="message-contents">\\n        {% msg_id %}\\n      </div>\\n\\n      {% #if image %}\\n        <center> <img height="200" width="200" src="\', escape=False)\nresponse.write(URL(\'default\', \'download\'))\nresponse.write(\'/{% image %}" /> </center>\\n      {% /if %}\\n\\n      <img src="\', escape=False)\nresponse.write(URL(\'default\', \'download\', args=picture_name))\nresponse.write(\'" />\\n\\n      <div class="message-creator">\\n        by: {% creator_name %}\\n      </div>\\n    </div>\\n    {% /msg_dict %}\\n  </div>\\n\\n\\n  {% #if loading %}\\n  <div id="load_spinner">\\n    <i class="fa fa-spinner fa-pulse fa-4x"></i>\\n  </div>\\n  {% /if %}\\n\\n  <div class="page-footer">\\n    {% #if (totalmessages > items_per_page) || page %}\\n    <div class="page-info">\\n      Page {% page + 1 %} / {% Math.ceil(totalmessages/items_per_page) %}\\n    </div>\\n    {% /if %}\\n\\n    {% #if page %}\\n    <a class="button" on-click="load-prev">\', escape=False)\nresponse.write(icon_circle_arrow_left)\nresponse.write(\' Previous</a>\\n    {% /if %}\\n    {% #if totalmessages > items_per_page %}\\n    <a class="button" on-click="load-next">Next \', escape=False)\nresponse.write(icon_circle_arrow_right)\nresponse.write(\'</a>\\n    {% /if %}\\n  </div>\\n</script>\\n\\n\\n<!--- BEGIN ANGULAR FNS --->\\n<script>\\n$(function() {\\n  // Ractive object\\n  var MAIN = new Ractive({\\n    el: \\\'#target\\\',\\n    template: \\\'#template\\\',\\n    delimiters: [\\\'{%\\\', \\\'%}\\\'],\\n    tripleDelimiters: [\\\'{%%\\\', \\\'%%}\\\'],\\n    data: {\\n      msg_dict: {},\\n      items_per_page: 0,\\n      totalmessages: 0,\\n      page: 0,\\n      draft_id: "",\\n      active_draft_name: "",\\n      active_draft_desc: "",\\n      image: true,\\n      user_id: 0,\\n      msg_len: {},\\n      marked_boards: [],\\n      del_vis: false,\\n      form_vis: false,\\n      loading: true\\n    },\\n  });\\n\\n  load_messages();\\n  setInterval(function() {load_messages()}, 10000);\\n\\n  // Reloads the list of boards.\\n  function load_messages() {\\n    var curr_page = MAIN.get(\\\'page\\\');\\n    $.ajax("\', escape=False)\nresponse.write(URL(\'default\', \'load_messages\', args=[id]))\nresponse.write(\'",\\n      {\\n        data: {\\n          page: curr_page\\n        },\\n        method: \\\'POST\\\',\\n        success: function (data) {\\n          if (data[\\\'msg_len\\\'] === 0 && data[\\\'page\\\'] > 0) {\\n            MAIN.set(\\\'page\\\', data[\\\'page\\\'] - 1);\\n            load_messages();\\n            return;\\n          }\\n          MAIN.set(\\\'msg_dict\\\', data[\\\'msg_dict\\\']);\\n          MAIN.set(\\\'items_per_page\\\', data[\\\'items_per_page\\\']);\\n          MAIN.set(\\\'totalmessages\\\', data[\\\'totalmessages\\\']);\\n          MAIN.set(\\\'loading\\\', false);\\n          MAIN.set(\\\'user_id\\\', data[\\\'user_id\\\']);\\n          MAIN.set(\\\'msg_len\\\', data[\\\'msg_len\\\']);\\n          MAIN.set(\\\'page\\\', data[\\\'page\\\']);\\n        },\\n        fail: function() {\\n          $("#server_error").show();\\n        }\\n      }\\n    );\\n  }\\n\\n  function send_message(msg_title, msg_desc) {\\n    var call_draft_id = MAIN.get(\\\'draft_id\\\');\\n    $.ajax("\', escape=False)\nresponse.write(URL(\'default\', \'add_message\'))\nresponse.write(\'",\\n            {\\n              data: {\\n                id: call_draft_id,     // request.vars.id\\n                msg_title: msg_title,    // request.vars.brd_name\\n                msg_desc: msg_desc,     // request.vars.brd_desc\\n                msg_brd: "\', escape=False)\nresponse.write(id)\nresponse.write(\'"\\n              },\\n              method: \\\'POST\\\',\\n              success: function() {\\n                load_messages();\\n              },\\n              fail: function() {\\n                $("#server_error").show();\\n              }\\n            }\\n    );\\n  }\\n\\n  // Listens for a board being marked.\\n  MAIN.on("mark-msg", function(e) {\\n    var t = $(e.original.target); // This is the button on which we clicked.\\n    var clicked_id = t.data(\\\'msgid\\\');  // To set it, you could do .data(\\\'msgid\\\', \\\'my id\\\');\\n    //get list of marked boards\\n    var marked_boards = MAIN.get(\\\'marked_boards\\\');\\n    // Check if board is already in list\\n    var board_index = marked_boards.indexOf(clicked_id);\\n    if (board_index >= 0) {\\n      // If is, remove\\n      marked_boards.splice(board_index, 1);\\n      //Make X default colour\\n      t.removeClass(\\\'selected\\\');\\n    } else {\\n      // If not, add\\n      marked_boards.push(clicked_id);\\n      //Make X red colour\\n      t.addClass(\\\'selected\\\');\\n    }\\n    // If marked_boards size < 1, hide delete button else, show it.\\n    if (marked_boards.length < 1) {\\n      MAIN.set(\\\'del_vis\\\', false);\\n    } else {\\n      MAIN.set(\\\'del_vis\\\', true);\\n    }\\n    MAIN.set(\\\'marked_boards\\\', marked_boards);\\n  });\\n\\n  // Listens for link to edit board\\n  MAIN.on("edit-msg", function(e) {\\n    // Make edit form visible\\n    MAIN.set(\\\'form_vis\\\', true);\\n    // First, we send to the server the current draft, to avoid losing it.\\n    var t = $(e.original.target); // This is the button on which we clicked.\\n    var clicked_id = t.data(\\\'msgid\\\');  // To set it, you could do .data(\\\'msgid\\\', \\\'my id\\\');\\n    var msg_dict = MAIN.get(\\\'msg_dict\\\');\\n    // First, display the draft text in the editing area.\\n    var msg_index = -1;\\n    for (var i = 0; i < msg_dict.length; i++)\\n    {\\n      if (msg_dict[i][\\\'id\\\'] === clicked_id) {\\n        msg_index = i;\\n        break;\\n      }\\n    }\\n    MAIN.set(\\\'active_draft_name\\\', msg_dict[msg_index][\\\'msg_title\\\']);\\n    MAIN.set(\\\'active_draft_desc\\\', msg_dict[msg_index][\\\'msg_id\\\']);\\n    // Sets the id of the draft being edited.\\n    MAIN.set(\\\'draft_id\\\', msg_dict[msg_index][\\\'id\\\']);\\n  });\\n\\n  // This code is called when the submit button is pressed.\\n  MAIN.on("send-msg", function(e) {\\n    var msg_name = MAIN.get(\\\'active_draft_name\\\');\\n    var msg_desc = MAIN.get(\\\'active_draft_desc\\\');\\n    if ($.trim(msg_name).length > 0) {\\n      // Send content back to server.  false = message is not a draft.\\n      send_message(msg_name, msg_desc);\\n      MAIN.set(\\\'active_draft_name\\\', \\\'\\\');\\n      MAIN.set(\\\'active_draft_desc\\\', \\\'\\\');\\n      MAIN.set(\\\'draft_id\\\', \\\'\\\');\\n      // Make form invisible\\n      MAIN.set(\\\'form_vis\\\', false);\\n    }\\n    return false;\\n  });\\n\\n  // This code is called when the create message button is pressed.\\n  MAIN.on("create-message", function(e) {\\n      MAIN.set(\\\'active_draft_name\\\', \\\'\\\');\\n      MAIN.set(\\\'active_draft_desc\\\', \\\'\\\');\\n      MAIN.set(\\\'draft_id\\\', \\\'\\\');\\n      MAIN.set(\\\'image\\\', \\\'\\\');\\n      // Make form invisible\\n      MAIN.set(\\\'form_vis\\\', true);\\n    return false;\\n  });\\n\\n  // This code is called when the cancel button is pressed.\\n  MAIN.on("cancel-edit", function(e) {\\n    MAIN.set(\\\'active_draft_name\\\', \\\'\\\');\\n    MAIN.set(\\\'active_draft_desc\\\', \\\'\\\');\\n    MAIN.set(\\\'draft_id\\\', \\\'\\\');\\n    // Make form invisible\\n    MAIN.set(\\\'form_vis\\\', false);\\n  });\\n\\n  // This code is called when the delete button is pressed.\\n  MAIN.on("delete-messages", function(e) {\\n    // get the marked boards\\n    var marked_boards = MAIN.get(\\\'marked_boards\\\');\\n    var msg_dict = MAIN.get(\\\'msg_dict\\\');\\n    var del_brds = [];\\n    for (var i = 0; i < marked_boards.length; i++) {\\n      del_brds.push(msg_dict[i][\\\'id\\\']);\\n    }\\n    // send ajax to delete board list.\\n    $.ajax("\', escape=False)\nresponse.write(URL(\'default\', \'delete_messages\', user_signature=True))\nresponse.write(\'",\\n      {\\n        data: {\\n          messages: marked_boards     // request.vars.boards\\n        },\\n        method: \\\'POST\\\',\\n        success: function() {\\n          MAIN.set(\\\'marked_boards\\\', []);\\n          load_messages();\\n        },\\n        fail: function() {\\n          $("#server_error").show();\\n        }\\n      }\\n    );\\n    // unselect boards\\n    MAIN.set(\\\'marked_boards\\\', []);\\n    MAIN.set(\\\'del_vis\\\', false);\\n  });\\n\\n  // This code is called when the page is increased.\\n  MAIN.on("load-next", function(e) {\\n    var page = MAIN.get(\\\'page\\\');\\n    MAIN.set(\\\'page\\\', page + 1);\\n    load_messages();\\n  });\\n\\n  MAIN.on("load-prev", function(e) {\\n    var page = MAIN.get(\\\'page\\\');\\n    MAIN.set(\\\'page\\\', page - 1);\\n    load_messages();\\n  });\\n\\n});\\n</script>\', escape=False)\nresponse.write(\'\\n        \', escape=False)\nresponse.write(\'\\n      </div>\\n\\n      \', escape=False)\nif right_sidebar_enabled:\n    response.write(\'\\n        <div class="col-md-3">\\n            \', escape=False)\n    response.write(\'\\n            <h3>Right Sidebar</h3>\\n            <p></p>\\n            \', escape=False)\n    response.write(\'\\n        </div>\\n      \', escape=False)\n    pass\nresponse.write(\'\\n\\n    </div>\\n\\n    \', escape=False)\nresponse.write(\' <!-- this is default footer -->\\n    <footer class="footer">\\n      <div class="container-fluid">\\n        <div class="copyright pull-left">\', escape=False)\nresponse.write(T(\'Copyright\'))\nresponse.write(\' &#169; \', escape=False)\nresponse.write(request.now.year)\nresponse.write(\'</div>\\n          <div id="poweredBy" class="pull-right">\\n            \', escape=False)\nresponse.write(T(\'Powered by\'))\nresponse.write(\'\\n            <a href="http://www.web2py.com/">web2py</a>\\n          </div>\\n      </div>\\n    </footer>\\n    \', escape=False)\nresponse.write(\'\\n    <!-- The javascript =============================== -->\\n    <script src="\', escape=False)\nresponse.write(URL(\'static\',\'js/bootstrap.min.js\'))\nresponse.write(\'"></script>\\n    <script src="\', escape=False)\nresponse.write(URL(\'static\',\'js/web2py-bootstrap3.js\'))\nresponse.write(\'"></script>\\n    <script src="\', escape=False)\nresponse.write(URL(\'static\',\'js/ractive.min.js\'))\nresponse.write(\'"></script>\\n    <script src="\', escape=False)\nresponse.write(URL(\'static\',\'js/ractive-transitions-fade.js\'))\nresponse.write(\'"></script>\\n    <script src="\', escape=False)\nresponse.write(URL(\'static\',\'js/ractive-transitions-slidehorizontal.min.js\'))\nresponse.write(\'"></script>\\n    \', escape=False)\nresponse.write(\'\\n    \', escape=False)\nif response.google_analytics_id:\n    response.write(\'\\n    <!-- Analytics ==================================== -->\\n    <script src="\', escape=False)\n    response.write(URL(\'static\',\'js/analytics.min.js\'))\n    response.write(\'"></script>\\n    <script type="text/javascript">\\n      analytics.initialize({\\n      \\\'Google Analytics\\\':{trackingId:\\\'\', escape=False)\n    response.write(response.google_analytics_id)\n    response.write("\'}\\n      });\\n    </script>\\n    ", escape=False)\n    pass\nresponse.write(\'\\n    <!-- Share ============================y============ -->\\n    <script src="\', escape=False)\nresponse.write(URL(\'static\',\'js/share.js\',vars=dict(static=URL(\'static\',\'images\'))))\nresponse.write(\'"></script>\\n  </body>\\n</html>\\n\', escape=False)'
p7
sS'snapshot'
p8
(dp9
S'exception'
p10
(dp11
S'__hash__'
p12
S"<method-wrapper '__hash__' of exceptions.NameError object>"
p13
sS'__setattr__'
p14
S"<method-wrapper '__setattr__' of exceptions.NameError object>"
p15
sS'__reduce_ex__'
p16
S'<built-in method __reduce_ex__ of exceptions.NameError object>'
p17
sS'__getslice__'
p18
S"<method-wrapper '__getslice__' of exceptions.NameError object>"
p19
sS'__getitem__'
p20
S"<method-wrapper '__getitem__' of exceptions.NameError object>"
p21
sS'__setstate__'
p22
S'<built-in method __setstate__ of exceptions.NameError object>'
p23
sS'__reduce__'
p24
S'<built-in method __reduce__ of exceptions.NameError object>'
p25
sS'__str__'
p26
S"<method-wrapper '__str__' of exceptions.NameError object>"
p27
sS'__format__'
p28
S'<built-in method __format__ of exceptions.NameError object>'
p29
sS'__getattribute__'
p30
S"<method-wrapper '__getattribute__' of exceptions.NameError object>"
p31
sS'__class__'
p32
S"<type 'exceptions.NameError'>"
p33
sS'__unicode__'
p34
S'<built-in method __unicode__ of exceptions.NameError object>'
p35
sS'__delattr__'
p36
S"<method-wrapper '__delattr__' of exceptions.NameError object>"
p37
sS'__subclasshook__'
p38
S'<built-in method __subclasshook__ of type object>'
p39
sS'__repr__'
p40
S"<method-wrapper '__repr__' of exceptions.NameError object>"
p41
sS'__dict__'
p42
S'{}'
p43
sS'args'
p44
S'("name \'picture_name\' is not defined",)'
p45
sS'__sizeof__'
p46
S'<built-in method __sizeof__ of exceptions.NameError object>'
p47
sS'__doc__'
p48
S"'Name not found globally.'"
p49
sS'__init__'
p50
S"<method-wrapper '__init__' of exceptions.NameError object>"
p51
sS'__new__'
p52
S'<built-in method __new__ of type object>'
p53
ssS'evalue'
p54
S"name 'picture_name' is not defined"
p55
sS'request'
p56
cgluon.html
XML_unpickle
p57
(S's\x05A\x01\x00<div><table><tr><td style="font-weight:bold;vertical-align:top;">ajax</td><td style="vertical-align:top;">:</td><td><div>False</div></td></tr><tr><td style="font-weight:bold;vertical-align:top;">application</td><td style="vertical-align:top;">:</td><td><div>start1</div></td></tr><tr><td style="font-weight:bold;vertical-align:top;">args</td><td style="vertical-align:top;">:</td><td><div><table><tr><td><div>6</div></td></tr></table></div></td></tr><tr><td style="font-weight:bold;vertical-align:top;">cid</td><td style="vertical-align:top;">:</td><td><div>None</div></td></tr><tr><td style="font-weight:bold;vertical-align:top;">client</td><td style="vertical-align:top;">:</td><td><div>127.0.0.1</div></td></tr><tr><td style="font-weight:bold;vertical-align:top;">controller</td><td style="vertical-align:top;">:</td><td><div>default</div></td></tr><tr><td style="font-weight:bold;vertical-align:top;">cookies</td><td style="vertical-align:top;">:</td><td><div><table><tr><td style="font-weight:bold;vertical-align:top;">session_id_183final</td><td style="vertical-align:top;">:</td><td><div>127.0.0.1-b60957c1-efe7-4c5b-ae44-3114d8af1346<table><tr><td style="font-weight:bold;vertical-align:top;">comment</td><td style="vertical-align:top;">:</td><td><div></div></td></tr><tr><td style="font-weight:bold;vertical-align:top;">domain</td><td style="vertical-align:top;">:</td><td><div></div></td></tr><tr><td style="font-weight:bold;vertical-align:top;">expires</td><td style="vertical-align:top;">:</td><td><div></div></td></tr><tr><td style="font-weight:bold;vertical-align:top;">httponly</td><td style="vertical-align:top;">:</td><td><div></div></td></tr><tr><td style="font-weight:bold;vertical-align:top;">max-age</td><td style="vertical-align:top;">:</td><td><div></div></td></tr><tr><td style="font-weight:bold;vertical-align:top;">path</td><td style="vertical-align:top;">:</td><td><div></div></td></tr><tr><td style="font-weight:bold;vertical-align:top;">secure</td><td style="vertical-align:top;">:</td><td><div></div></td></tr><tr><td style="font-weight:bold;vertical-align:top;">version</td><td style="vertical-align:top;">:</td><td><div></div></td></tr></table></div></td></tr><tr><td style="font-weight:bold;vertical-align:top;">session_id_5thassignment</td><td style="vertical-align:top;">:</td><td><div>127.0.0.1-c40f8dd3-8f7c-4bc9-b4d3-c942fef319be<table><tr><td style="font-weight:bold;vertical-align:top;">comment</td><td style="vertical-align:top;">:</td><td><div></div></td></tr><tr><td style="font-weight:bold;vertical-align:top;">domain</td><td style="vertical-align:top;">:</td><td><div></div></td></tr><tr><td style="font-weight:bold;vertical-align:top;">expires</td><td style="vertical-align:top;">:</td><td><div></div></td></tr><tr><td style="font-weight:bold;vertical-align:top;">httponly</td><td style="vertical-align:top;">:</td><td><div></div></td></tr><tr><td style="font-weight:bold;vertical-align:top;">max-age</td><td style="vertical-align:top;">:</td><td><div></div></td></tr><tr><td style="font-weight:bold;vertical-align:top;">path</td><td style="vertical-align:top;">:</td><td><div></div></td></tr><tr><td style="font-weight:bold;vertical-align:top;">secure</td><td style="vertical-align:top;">:</td><td><div></div></td></tr><tr><td style="font-weight:bold;vertical-align:top;">version</td><td style="vertical-align:top;">:</td><td><div></div></td></tr></table></div></td></tr><tr><td style="font-weight:bold;vertical-align:top;">session_id_admin</td><td style="vertical-align:top;">:</td><td><div>127.0.0.1-c0d45b2d-3093-46f2-b069-508786ff439a<table><tr><td style="font-weight:bold;vertical-align:top;">comment</td><td style="vertical-align:top;">:</td><td><div></div></td></tr><tr><td style="font-weight:bold;vertical-align:top;">domain</td><td style="vertical-align:top;">:</td><td><div></div></td></tr><tr><td style="font-weight:bold;vertical-align:top;">expires</td><td style="vertical-align:top;">:</td><td><div></div></td></tr><tr><td style="font-weight:bold;vertical-align:top;">httponly</td><td style="vertical-align:top;">:</td><td><div></div></td></tr><tr><td style="font-weight:bold;vertical-align:top;">max-age</td><td style="vertical-align:top;">:</td><td><div></div></td></tr><tr><td style="font-weight:bold;vertical-align:top;">path</td><td style="vertical-align:top;">:</td><td><div></div></td></tr><tr><td style="font-weight:bold;vertical-align:top;">secure</td><td style="vertical-align:top;">:</td><td><div></div></td></tr><tr><td style="font-weight:bold;vertical-align:top;">version</td><td style="vertical-align:top;">:</td><td><div></div></td></tr></table></div></td></tr><tr><td style="font-weight:bold;vertical-align:top;">session_id_final_app</td><td style="vertical-align:top;">:</td><td><div>127.0.0.1-41a14d97-5132-4d61-866a-f8227a9eb725<table><tr><td style="font-weight:bold;vertical-align:top;">comment</td><td style="vertical-align:top;">:</td><td><div></div></td></tr><tr><td style="font-weight:bold;vertical-align:top;">domain</td><td style="vertical-align:top;">:</td><td><div></div></td></tr><tr><td style="font-weight:bold;vertical-align:top;">expires</td><td style="vertical-align:top;">:</td><td><div></div></td></tr><tr><td style="font-weight:bold;vertical-align:top;">httponly</td><td style="vertical-align:top;">:</td><td><div></div></td></tr><tr><td style="font-weight:bold;vertical-align:top;">max-age</td><td style="vertical-align:top;">:</td><td><div></div></td></tr><tr><td style="font-weight:bold;vertical-align:top;">path</td><td style="vertical-align:top;">:</td><td><div></div></td></tr><tr><td style="font-weight:bold;vertical-align:top;">secure</td><td style="vertical-align:top;">:</td><td><div></div></td></tr><tr><td style="font-weight:bold;vertical-align:top;">version</td><td style="vertical-align:top;">:</td><td><div></div></td></tr></table></div></td></tr><tr><td style="font-weight:bold;vertical-align:top;">session_id_findme</td><td style="vertical-align:top;">:</td><td><div>127.0.0.1-c855cd70-ec74-4477-b817-45f84cdb44b3<table><tr><td style="font-weight:bold;vertical-align:top;">comment</td><td style="vertical-align:top;">:</td><td><div></div></td></tr><tr><td style="font-weight:bold;vertical-align:top;">domain</td><td style="vertical-align:top;">:</td><td><div></div></td></tr><tr><td style="font-weight:bold;vertical-align:top;">expires</td><td style="vertical-align:top;">:</td><td><div></div></td></tr><tr><td style="font-weight:bold;vertical-align:top;">httponly</td><td style="vertical-align:top;">:</td><td><div></div></td></tr><tr><td style="font-weight:bold;vertical-align:top;">max-age</td><td style="vertical-align:top;">:</td><td><div></div></td></tr><tr><td style="font-weight:bold;vertical-align:top;">path</td><td style="vertical-align:top;">:</td><td><div></div></td></tr><tr><td style="font-weight:bold;vertical-align:top;">secure</td><td style="vertical-align:top;">:</td><td><div></div></td></tr><tr><td style="font-weight:bold;vertical-align:top;">version</td><td style="vertical-align:top;">:</td><td><div></div></td></tr></table></div></td></tr><tr><td style="font-weight:bold;vertical-align:top;">session_id_grade2_1</td><td style="vertical-align:top;">:</td><td><div>127.0.0.1-717ae13b-ddd3-4047-9b3f-318399fdc37e<table><tr><td style="font-weight:bold;vertical-align:top;">comment</td><td style="vertical-align:top;">:</td><td><div></div></td></tr><tr><td style="font-weight:bold;vertical-align:top;">domain</td><td style="vertical-align:top;">:</td><td><div></div></td></tr><tr><td style="font-weight:bold;vertical-align:top;">expires</td><td style="vertical-align:top;">:</td><td><div></div></td></tr><tr><td style="font-weight:bold;vertical-align:top;">httponly</td><td style="vertical-align:top;">:</td><td><div></div></td></tr><tr><td style="font-weight:bold;vertical-align:top;">max-age</td><td style="vertical-align:top;">:</td><td><div></div></td></tr><tr><td style="font-weight:bold;vertical-align:top;">path</td><td style="vertical-align:top;">:</td><td><div></div></td></tr><tr><td style="font-weight:bold;vertical-align:top;">secure</td><td style="vertical-align:top;">:</td><td><div></div></td></tr><tr><td style="font-weight:bold;vertical-align:top;">version</td><td style="vertical-align:top;">:</td><td><div></div></td></tr></table></div></td></tr><tr><td style="font-weight:bold;vertical-align:top;">session_id_grade2_2</td><td style="vertical-align:top;">:</td><td><div>127.0.0.1-ef1bfd1d-77f4-4791-8046-9706c3e08430<table><tr><td style="font-weight:bold;vertical-align:top;">comment</td><td style="vertical-align:top;">:</td><td><div></div></td></tr><tr><td style="font-weight:bold;vertical-align:top;">domain</td><td style="vertical-align:top;">:</td><td><div></div></td></tr><tr><td style="font-weight:bold;vertical-align:top;">expires</td><td style="vertical-align:top;">:</td><td><div></div></td></tr><tr><td style="font-weight:bold;vertical-align:top;">httponly</td><td style="vertical-align:top;">:</td><td><div></div></td></tr><tr><td style="font-weight:bold;vertical-align:top;">max-age</td><td style="vertical-align:top;">:</td><td><div></div></td></tr><tr><td style="font-weight:bold;vertical-align:top;">path</td><td style="vertical-align:top;">:</td><td><div></div></td></tr><tr><td style="font-weight:bold;vertical-align:top;">secure</td><td style="vertical-align:top;">:</td><td><div></div></td></tr><tr><td style="font-weight:bold;vertical-align:top;">version</td><td style="vertical-align:top;">:</td><td><div></div></td></tr></table></div></td></tr><tr><td style="font-weight:bold;vertical-align:top;">session_id_grade2_3</td><td style="vertical-align:top;">:</td><td><div>127.0.0.1-72cea149-97b1-4cf5-bd93-b7897a995f8c<table><tr><td style="font-weight:bold;vertical-align:top;">comment</td><td style="vertical-align:top;">:</td><td><div></div></td></tr><tr><td style="font-weight:bold;vertical-align:top;">domain</td><td style="vertical-align:top;">:</td><td><div></div></td></tr><tr><td style="font-weight:bold;vertical-align:top;">expires</td><td style="vertical-align:top;">:</td><td><div></div></td></tr><tr><td style="font-weight:bold;vertical-align:top;">httponly</td><td style="vertical-align:top;">:</td><td><div></div></td></tr><tr><td style="font-weight:bold;vertical-align:top;">max-age</td><td style="vertical-align:top;">:</td><td><div></div></td></tr><tr><td style="font-weight:bold;vertical-align:top;">path</td><td style="vertical-align:top;">:</td><td><div></div></td></tr><tr><td style="font-weight:bold;vertical-align:top;">secure</td><td style="vertical-align:top;">:</td><td><div></div></td></tr><tr><td style="font-weight:bold;vertical-align:top;">version</td><td style="vertical-align:top;">:</td><td><div></div></td></tr></table></div></td></tr><tr><td style="font-weight:bold;vertical-align:top;">session_id_grade2_4</td><td style="vertical-align:top;">:</td><td><div>127.0.0.1-eafafab6-b7d2-40b0-8958-a77c0edf096a<table><tr><td style="font-weight:bold;vertical-align:top;">comment</td><td style="vertical-align:top;">:</td><td><div></div></td></tr><tr><td style="font-weight:bold;vertical-align:top;">domain</td><td style="vertical-align:top;">:</td><td><div></div></td></tr><tr><td style="font-weight:bold;vertical-align:top;">expires</td><td style="vertical-align:top;">:</td><td><div></div></td></tr><tr><td style="font-weight:bold;vertical-align:top;">httponly</td><td style="vertical-align:top;">:</td><td><div></div></td></tr><tr><td style="font-weight:bold;vertical-align:top;">max-age</td><td style="vertical-align:top;">:</td><td><div></div></td></tr><tr><td style="font-weight:bold;vertical-align:top;">path</td><td style="vertical-align:top;">:</td><td><div></div></td></tr><tr><td style="font-weight:bold;vertical-align:top;">secure</td><td style="vertical-align:top;">:</td><td><div></div></td></tr><tr><td style="font-weight:bold;vertical-align:top;">version</td><td style="vertical-align:top;">:</td><td><div></div></td></tr></table></div></td></tr><tr><td style="font-weight:bold;vertical-align:top;">session_id_grade2_5</td><td style="vertical-align:top;">:</td><td><div>127.0.0.1-80c6ad74-f9d2-4098-8ee4-69815a9a101c<table><tr><td style="font-weight:bold;vertical-align:top;">comment</td><td style="vertical-align:top;">:</td><td><div></div></td></tr><tr><td style="font-weight:bold;vertical-align:top;">domain</td><td style="vertical-align:top;">:</td><td><div></div></td></tr><tr><td style="font-weight:bold;vertical-align:top;">expires</td><td style="vertical-align:top;">:</td><td><div></div></td></tr><tr><td style="font-weight:bold;vertical-align:top;">httponly</td><td style="vertical-align:top;">:</td><td><div></div></td></tr><tr><td style="font-weight:bold;vertical-align:top;">max-age</td><td style="vertical-align:top;">:</td><td><div></div></td></tr><tr><td style="font-weight:bold;vertical-align:top;">path</td><td style="vertical-align:top;">:</td><td><div></div></td></tr><tr><td style="font-weight:bold;vertical-align:top;">secure</td><td style="vertical-align:top;">:</td><td><div></div></td></tr><tr><td style="font-weight:bold;vertical-align:top;">version</td><td style="vertical-align:top;">:</td><td><div></div></td></tr></table></div></td></tr><tr><td style="font-weight:bold;vertical-align:top;">session_id_grade3_1</td><td style="vertical-align:top;">:</td><td><div>127.0.0.1-b9b59c77-0c02-4f90-8579-bc7acb1f4da0<table><tr><td style="font-weight:bold;vertical-align:top;">comment</td><td style="vertical-align:top;">:</td><td><div></div></td></tr><tr><td style="font-weight:bold;vertical-align:top;">domain</td><td style="vertical-align:top;">:</td><td><div></div></td></tr><tr><td style="font-weight:bold;vertical-align:top;">expires</td><td style="vertical-align:top;">:</td><td><div></div></td></tr><tr><td style="font-weight:bold;vertical-align:top;">httponly</td><td style="vertical-align:top;">:</td><td><div></div></td></tr><tr><td style="font-weight:bold;vertical-align:top;">max-age</td><td style="vertical-align:top;">:</td><td><div></div></td></tr><tr><td style="font-weight:bold;vertical-align:top;">path</td><td style="vertical-align:top;">:</td><td><div></div></td></tr><tr><td style="font-weight:bold;vertical-align:top;">secure</td><td style="vertical-align:top;">:</td><td><div></div></td></tr><tr><td style="font-weight:bold;vertical-align:top;">version</td><td style="vertical-align:top;">:</td><td><div></div></td></tr></table></div></td></tr><tr><td style="font-weight:bold;vertical-align:top;">session_id_grade3_2</td><td style="vertical-align:top;">:</td><td><div>127.0.0.1-63bfe680-7781-4d34-acd4-aa9fe4505b64<table><tr><td style="font-weight:bold;vertical-align:top;">comment</td><td style="vertical-align:top;">:</td><td><div></div></td></tr><tr><td style="font-weight:bold;vertical-align:top;">domain</td><td style="vertical-align:top;">:</td><td><div></div></td></tr><tr><td style="font-weight:bold;vertical-align:top;">expires</td><td style="vertical-align:top;">:</td><td><div></div></td></tr><tr><td style="font-weight:bold;vertical-align:top;">httponly</td><td style="vertical-align:top;">:</td><td><div></div></td></tr><tr><td style="font-weight:bold;vertical-align:top;">max-age</td><td style="vertical-align:top;">:</td><td><div></div></td></tr><tr><td style="font-weight:bold;vertical-align:top;">path</td><td style="vertical-align:top;">:</td><td><div></div></td></tr><tr><td style="font-weight:bold;vertical-align:top;">secure</td><td style="vertical-align:top;">:</td><td><div></div></td></tr><tr><td style="font-weight:bold;vertical-align:top;">version</td><td style="vertical-align:top;">:</td><td><div></div></td></tr></table></div></td></tr><tr><td style="font-weight:bold;vertical-align:top;">session_id_grade3_3</td><td style="vertical-align:top;">:</td><td><div>127.0.0.1-cc8b1c7b-0abf-4b45-879f-1cfbe31e8434<table><tr><td style="font-weight:bold;vertical-align:top;">comment</td><td style="vertical-align:top;">:</td><td><div></div></td></tr><tr><td style="font-weight:bold;vertical-align:top;">domain</td><td style="vertical-align:top;">:</td><td><div></div></td></tr><tr><td style="font-weight:bold;vertical-align:top;">expires</td><td style="vertical-align:top;">:</td><td><div></div></td></tr><tr><td style="font-weight:bold;vertical-align:top;">httponly</td><td style="vertical-align:top;">:</td><td><div></div></td></tr><tr><td style="font-weight:bold;vertical-align:top;">max-age</td><td style="vertical-align:top;">:</td><td><div></div></td></tr><tr><td style="font-weight:bold;vertical-align:top;">path</td><td style="vertical-align:top;">:</td><td><div></div></td></tr><tr><td style="font-weight:bold;vertical-align:top;">secure</td><td style="vertical-align:top;">:</td><td><div></div></td></tr><tr><td style="font-weight:bold;vertical-align:top;">version</td><td style="vertical-align:top;">:</td><td><div></div></td></tr></table></div></td></tr><tr><td style="font-weight:bold;vertical-align:top;">session_id_grade3_4</td><td style="vertical-align:top;">:</td><td><div>127.0.0.1-3853ab94-69d2-4f60-8f2c-fe26101dcb25<table><tr><td style="font-weight:bold;vertical-align:top;">comment</td><td style="vertical-align:top;">:</td><td><div></div></td></tr><tr><td style="font-weight:bold;vertical-align:top;">domain</td><td style="vertical-align:top;">:</td><td><div></div></td></tr><tr><td style="font-weight:bold;vertical-align:top;">expires</td><td style="vertical-align:top;">:</td><td><div></div></td></tr><tr><td style="font-weight:bold;vertical-align:top;">httponly</td><td style="vertical-align:top;">:</td><td><div></div></td></tr><tr><td style="font-weight:bold;vertical-align:top;">max-age</td><td style="vertical-align:top;">:</td><td><div></div></td></tr><tr><td style="font-weight:bold;vertical-align:top;">path</td><td style="vertical-align:top;">:</td><td><div></div></td></tr><tr><td style="font-weight:bold;vertical-align:top;">secure</td><td style="vertical-align:top;">:</td><td><div></div></td></tr><tr><td style="font-weight:bold;vertical-align:top;">version</td><td style="vertical-align:top;">:</td><td><div></div></td></tr></table></div></td></tr><tr><td style="font-weight:bold;vertical-align:top;">session_id_grade3_5</td><td style="vertical-align:top;">:</td><td><div>127.0.0.1-fd9e7862-6d1d-4a24-82b8-607fce60abea<table><tr><td style="font-weight:bold;vertical-align:top;">comment</td><td style="vertical-align:top;">:</td><td><div></div></td></tr><tr><td style="font-weight:bold;vertical-align:top;">domain</td><td style="vertical-align:top;">:</td><td><div></div></td></tr><tr><td style="font-weight:bold;vertical-align:top;">expires</td><td style="vertical-align:top;">:</td><td><div></div></td></tr><tr><td style="font-weight:bold;vertical-align:top;">httponly</td><td style="vertical-align:top;">:</td><td><div></div></td></tr><tr><td style="font-weight:bold;vertical-align:top;">max-age</td><td style="vertical-align:top;">:</td><td><div></div></td></tr><tr><td style="font-weight:bold;vertical-align:top;">path</td><td style="vertical-align:top;">:</td><td><div></div></td></tr><tr><td style="font-weight:bold;vertical-align:top;">secure</td><td style="vertical-align:top;">:</td><td><div></div></td></tr><tr><td style="font-weight:bold;vertical-align:top;">version</td><td style="vertical-align:top;">:</td><td><div></div></td></tr></table></div></td></tr><tr><td style="font-weight:bold;vertical-align:top;">session_id_grade4_1</td><td style="vertical-align:top;">:</td><td><div>127.0.0.1-59ecffa3-e555-4f9c-a4b3-55f3cee9f217<table><tr><td style="font-weight:bold;vertical-align:top;">comment</td><td style="vertical-align:top;">:</td><td><div></div></td></tr><tr><td style="font-weight:bold;vertical-align:top;">domain</td><td style="vertical-align:top;">:</td><td><div></div></td></tr><tr><td style="font-weight:bold;vertical-align:top;">expires</td><td style="vertical-align:top;">:</td><td><div></div></td></tr><tr><td style="font-weight:bold;vertical-align:top;">httponly</td><td style="vertical-align:top;">:</td><td><div></div></td></tr><tr><td style="font-weight:bold;vertical-align:top;">max-age</td><td style="vertical-align:top;">:</td><td><div></div></td></tr><tr><td style="font-weight:bold;vertical-align:top;">path</td><td style="vertical-align:top;">:</td><td><div></div></td></tr><tr><td style="font-weight:bold;vertical-align:top;">secure</td><td style="vertical-align:top;">:</td><td><div></div></td></tr><tr><td style="font-weight:bold;vertical-align:top;">version</td><td style="vertical-align:top;">:</td><td><div></div></td></tr></table></div></td></tr><tr><td style="font-weight:bold;vertical-align:top;">session_id_grade4_2</td><td style="vertical-align:top;">:</td><td><div>127.0.0.1-7ea09a42-edeb-4f19-9e27-87e18e3ee42a<table><tr><td style="font-weight:bold;vertical-align:top;">comment</td><td style="vertical-align:top;">:</td><td><div></div></td></tr><tr><td style="font-weight:bold;vertical-align:top;">domain</td><td style="vertical-align:top;">:</td><td><div></div></td></tr><tr><td style="font-weight:bold;vertical-align:top;">expires</td><td style="vertical-align:top;">:</td><td><div></div></td></tr><tr><td style="font-weight:bold;vertical-align:top;">httponly</td><td style="vertical-align:top;">:</td><td><div></div></td></tr><tr><td style="font-weight:bold;vertical-align:top;">max-age</td><td style="vertical-align:top;">:</td><td><div></div></td></tr><tr><td style="font-weight:bold;vertical-align:top;">path</td><td style="vertical-align:top;">:</td><td><div></div></td></tr><tr><td style="font-weight:bold;vertical-align:top;">secure</td><td style="vertical-align:top;">:</td><td><div></div></td></tr><tr><td style="font-weight:bold;vertical-align:top;">version</td><td style="vertical-align:top;">:</td><td><div></div></td></tr></table></div></td></tr><tr><td style="font-weight:bold;vertical-align:top;">session_id_grade5_1</td><td style="vertical-align:top;">:</td><td><div>127.0.0.1-a261efde-be4a-4d97-9eae-a156a27691c3<table><tr><td style="font-weight:bold;vertical-align:top;">comment</td><td style="vertical-align:top;">:</td><td><div></div></td></tr><tr><td style="font-weight:bold;vertical-align:top;">domain</td><td style="vertical-align:top;">:</td><td><div></div></td></tr><tr><td style="font-weight:bold;vertical-align:top;">expires</td><td style="vertical-align:top;">:</td><td><div></div></td></tr><tr><td style="font-weight:bold;vertical-align:top;">httponly</td><td style="vertical-align:top;">:</td><td><div></div></td></tr><tr><td style="font-weight:bold;vertical-align:top;">max-age</td><td style="vertical-align:top;">:</td><td><div></div></td></tr><tr><td style="font-weight:bold;vertical-align:top;">path</td><td style="vertical-align:top;">:</td><td><div></div></td></tr><tr><td style="font-weight:bold;vertical-align:top;">secure</td><td style="vertical-align:top;">:</td><td><div></div></td></tr><tr><td style="font-weight:bold;vertical-align:top;">version</td><td style="vertical-align:top;">:</td><td><div></div></td></tr></table></div></td></tr><tr><td style="font-weight:bold;vertical-align:top;">session_id_grade5_2</td><td style="vertical-align:top;">:</td><td><div>127.0.0.1-1e25e22b-c762-465f-aabb-f9d43a3d20aa<table><tr><td style="font-weight:bold;vertical-align:top;">comment</td><td style="vertical-align:top;">:</td><td><div></div></td></tr><tr><td style="font-weight:bold;vertical-align:top;">domain</td><td style="vertical-align:top;">:</td><td><div></div></td></tr><tr><td style="font-weight:bold;vertical-align:top;">expires</td><td style="vertical-align:top;">:</td><td><div></div></td></tr><tr><td style="font-weight:bold;vertical-align:top;">httponly</td><td style="vertical-align:top;">:</td><td><div></div></td></tr><tr><td style="font-weight:bold;vertical-align:top;">max-age</td><td style="vertical-align:top;">:</td><td><div></div></td></tr><tr><td style="font-weight:bold;vertical-align:top;">path</td><td style="vertical-align:top;">:</td><td><div></div></td></tr><tr><td style="font-weight:bold;vertical-align:top;">secure</td><td style="vertical-align:top;">:</td><td><div></div></td></tr><tr><td style="font-weight:bold;vertical-align:top;">version</td><td style="vertical-align:top;">:</td><td><div></div></td></tr></table></div></td></tr><tr><td style="font-weight:bold;vertical-align:top;">session_id_grade5_3</td><td style="vertical-align:top;">:</td><td><div>127.0.0.1-6cc90f9c-ece4-468d-a988-50b89b6eb5c6<table><tr><td style="font-weight:bold;vertical-align:top;">comment</td><td style="vertical-align:top;">:</td><td><div></div></td></tr><tr><td style="font-weight:bold;vertical-align:top;">domain</td><td style="vertical-align:top;">:</td><td><div></div></td></tr><tr><td style="font-weight:bold;vertical-align:top;">expires</td><td style="vertical-align:top;">:</td><td><div></div></td></tr><tr><td style="font-weight:bold;vertical-align:top;">httponly</td><td style="vertical-align:top;">:</td><td><div></div></td></tr><tr><td style="font-weight:bold;vertical-align:top;">max-age</td><td style="vertical-align:top;">:</td><td><div></div></td></tr><tr><td style="font-weight:bold;vertical-align:top;">path</td><td style="vertical-align:top;">:</td><td><div></div></td></tr><tr><td style="font-weight:bold;vertical-align:top;">secure</td><td style="vertical-align:top;">:</td><td><div></div></td></tr><tr><td style="font-weight:bold;vertical-align:top;">version</td><td style="vertical-align:top;">:</td><td><div></div></td></tr></table></div></td></tr><tr><td style="font-weight:bold;vertical-align:top;">session_id_grade5_4</td><td style="vertical-align:top;">:</td><td><div>127.0.0.1-64828803-c406-456f-96f7-86f0229fbd94<table><tr><td style="font-weight:bold;vertical-align:top;">comment</td><td style="vertical-align:top;">:</td><td><div></div></td></tr><tr><td style="font-weight:bold;vertical-align:top;">domain</td><td style="vertical-align:top;">:</td><td><div></div></td></tr><tr><td style="font-weight:bold;vertical-align:top;">expires</td><td style="vertical-align:top;">:</td><td><div></div></td></tr><tr><td style="font-weight:bold;vertical-align:top;">httponly</td><td style="vertical-align:top;">:</td><td><div></div></td></tr><tr><td style="font-weight:bold;vertical-align:top;">max-age</td><td style="vertical-align:top;">:</td><td><div></div></td></tr><tr><td style="font-weight:bold;vertical-align:top;">path</td><td style="vertical-align:top;">:</td><td><div></div></td></tr><tr><td style="font-weight:bold;vertical-align:top;">secure</td><td style="vertical-align:top;">:</td><td><div></div></td></tr><tr><td style="font-weight:bold;vertical-align:top;">version</td><td style="vertical-align:top;">:</td><td><div></div></td></tr></table></div></td></tr><tr><td style="font-weight:bold;vertical-align:top;">session_id_grade5_5</td><td style="vertical-align:top;">:</td><td><div>127.0.0.1-75a33eff-d58e-4729-a1ca-b8b856cc2fe4<table><tr><td style="font-weight:bold;vertical-align:top;">comment</td><td style="vertical-align:top;">:</td><td><div></div></td></tr><tr><td style="font-weight:bold;vertical-align:top;">domain</td><td style="vertical-align:top;">:</td><td><div></div></td></tr><tr><td style="font-weight:bold;vertical-align:top;">expires</td><td style="vertical-align:top;">:</td><td><div></div></td></tr><tr><td style="font-weight:bold;vertical-align:top;">httponly</td><td style="vertical-align:top;">:</td><td><div></div></td></tr><tr><td style="font-weight:bold;vertical-align:top;">max-age</td><td style="vertical-align:top;">:</td><td><div></div></td></tr><tr><td style="font-weight:bold;vertical-align:top;">path</td><td style="vertical-align:top;">:</td><td><div></div></td></tr><tr><td style="font-weight:bold;vertical-align:top;">secure</td><td style="vertical-align:top;">:</td><td><div></div></td></tr><tr><td style="font-weight:bold;vertical-align:top;">version</td><td style="vertical-align:top;">:</td><td><div></div></td></tr></table></div></td></tr><tr><td style="font-weight:bold;vertical-align:top;">session_id_grade5_6</td><td style="vertical-align:top;">:</td><td><div>127.0.0.1-52020401-259f-4617-92db-38b1c58323f2<table><tr><td style="font-weight:bold;vertical-align:top;">comment</td><td style="vertical-align:top;">:</td><td><div></div></td></tr><tr><td style="font-weight:bold;vertical-align:top;">domain</td><td style="vertical-align:top;">:</td><td><div></div></td></tr><tr><td style="font-weight:bold;vertical-align:top;">expires</td><td style="vertical-align:top;">:</td><td><div></div></td></tr><tr><td style="font-weight:bold;vertical-align:top;">httponly</td><td style="vertical-align:top;">:</td><td><div></div></td></tr><tr><td style="font-weight:bold;vertical-align:top;">max-age</td><td style="vertical-align:top;">:</td><td><div></div></td></tr><tr><td style="font-weight:bold;vertical-align:top;">path</td><td style="vertical-align:top;">:</td><td><div></div></td></tr><tr><td style="font-weight:bold;vertical-align:top;">secure</td><td style="vertical-align:top;">:</td><td><div></div></td></tr><tr><td style="font-weight:bold;vertical-align:top;">version</td><td style="vertical-align:top;">:</td><td><div></div></td></tr></table></div></td></tr><tr><td style="font-weight:bold;vertical-align:top;">session_id_hw2</td><td style="vertical-align:top;">:</td><td><div>127.0.0.1-f0ec66f4-373f-4a99-964e-897d40728013<table><tr><td style="font-weight:bold;vertical-align:top;">comment</td><td style="vertical-align:top;">:</td><td><div></div></td></tr><tr><td style="font-weight:bold;vertical-align:top;">domain</td><td style="vertical-align:top;">:</td><td><div></div></td></tr><tr><td style="font-weight:bold;vertical-align:top;">expires</td><td style="vertical-align:top;">:</td><td><div></div></td></tr><tr><td style="font-weight:bold;vertical-align:top;">httponly</td><td style="vertical-align:top;">:</td><td><div></div></td></tr><tr><td style="font-weight:bold;vertical-align:top;">max-age</td><td style="vertical-align:top;">:</td><td><div></div></td></tr><tr><td style="font-weight:bold;vertical-align:top;">path</td><td style="vertical-align:top;">:</td><td><div></div></td></tr><tr><td style="font-weight:bold;vertical-align:top;">secure</td><td style="vertical-align:top;">:</td><td><div></div></td></tr><tr><td style="font-weight:bold;vertical-align:top;">version</td><td style="vertical-align:top;">:</td><td><div></div></td></tr></table></div></td></tr><tr><td style="font-weight:bold;vertical-align:top;">session_id_hw22</td><td style="vertical-align:top;">:</td><td><div>127.0.0.1-386f91d8-bd36-41a9-a8a7-ad5c841e93a9<table><tr><td style="font-weight:bold;vertical-align:top;">comment</td><td style="vertical-align:top;">:</td><td><div></div></td></tr><tr><td style="font-weight:bold;vertical-align:top;">domain</td><td style="vertical-align:top;">:</td><td><div></div></td></tr><tr><td style="font-weight:bold;vertical-align:top;">expires</td><td style="vertical-align:top;">:</td><td><div></div></td></tr><tr><td style="font-weight:bold;vertical-align:top;">httponly</td><td style="vertical-align:top;">:</td><td><div></div></td></tr><tr><td style="font-weight:bold;vertical-align:top;">max-age</td><td style="vertical-align:top;">:</td><td><div></div></td></tr><tr><td style="font-weight:bold;vertical-align:top;">path</td><td style="vertical-align:top;">:</td><td><div></div></td></tr><tr><td style="font-weight:bold;vertical-align:top;">secure</td><td style="vertical-align:top;">:</td><td><div></div></td></tr><tr><td style="font-weight:bold;vertical-align:top;">version</td><td style="vertical-align:top;">:</td><td><div></div></td></tr></table></div></td></tr><tr><td style="font-weight:bold;vertical-align:top;">session_id_hw3</td><td style="vertical-align:top;">:</td><td><div>127.0.0.1-9cdd1bc7-d3c6-4f0c-a0fe-3756de66d557<table><tr><td style="font-weight:bold;vertical-align:top;">comment</td><td style="vertical-align:top;">:</td><td><div></div></td></tr><tr><td style="font-weight:bold;vertical-align:top;">domain</td><td style="vertical-align:top;">:</td><td><div></div></td></tr><tr><td style="font-weight:bold;vertical-align:top;">expires</td><td style="vertical-align:top;">:</td><td><div></div></td></tr><tr><td style="font-weight:bold;vertical-align:top;">httponly</td><td style="vertical-align:top;">:</td><td><div></div></td></tr><tr><td style="font-weight:bold;vertical-align:top;">max-age</td><td style="vertical-align:top;">:</td><td><div></div></td></tr><tr><td style="font-weight:bold;vertical-align:top;">path</td><td style="vertical-align:top;">:</td><td><div></div></td></tr><tr><td style="font-weight:bold;vertical-align:top;">secure</td><td style="vertical-align:top;">:</td><td><div></div></td></tr><tr><td style="font-weight:bold;vertical-align:top;">version</td><td style="vertical-align:top;">:</td><td><div></div></td></tr></table></div></td></tr><tr><td style="font-weight:bold;vertical-align:top;">session_id_hw33</td><td style="vertical-align:top;">:</td><td><div>127.0.0.1-f31fd18b-7111-4578-9aab-1645a2a5e594<table><tr><td style="font-weight:bold;vertical-align:top;">comment</td><td style="vertical-align:top;">:</td><td><div></div></td></tr><tr><td style="font-weight:bold;vertical-align:top;">domain</td><td style="vertical-align:top;">:</td><td><div></div></td></tr><tr><td style="font-weight:bold;vertical-align:top;">expires</td><td style="vertical-align:top;">:</td><td><div></div></td></tr><tr><td style="font-weight:bold;vertical-align:top;">httponly</td><td style="vertical-align:top;">:</td><td><div></div></td></tr><tr><td style="font-weight:bold;vertical-align:top;">max-age</td><td style="vertical-align:top;">:</td><td><div></div></td></tr><tr><td style="font-weight:bold;vertical-align:top;">path</td><td style="vertical-align:top;">:</td><td><div></div></td></tr><tr><td style="font-weight:bold;vertical-align:top;">secure</td><td style="vertical-align:top;">:</td><td><div></div></td></tr><tr><td style="font-weight:bold;vertical-align:top;">version</td><td style="vertical-align:top;">:</td><td><div></div></td></tr></table></div></td></tr><tr><td style="font-weight:bold;vertical-align:top;">session_id_hw35</td><td style="vertical-align:top;">:</td><td><div>127.0.0.1-e2259116-b2fa-4f9c-aeea-37db7b2bc1e2<table><tr><td style="font-weight:bold;vertical-align:top;">comment</td><td style="vertical-align:top;">:</td><td><div></div></td></tr><tr><td style="font-weight:bold;vertical-align:top;">domain</td><td style="vertical-align:top;">:</td><td><div></div></td></tr><tr><td style="font-weight:bold;vertical-align:top;">expires</td><td style="vertical-align:top;">:</td><td><div></div></td></tr><tr><td style="font-weight:bold;vertical-align:top;">httponly</td><td style="vertical-align:top;">:</td><td><div></div></td></tr><tr><td style="font-weight:bold;vertical-align:top;">max-age</td><td style="vertical-align:top;">:</td><td><div></div></td></tr><tr><td style="font-weight:bold;vertical-align:top;">path</td><td style="vertical-align:top;">:</td><td><div></div></td></tr><tr><td style="font-weight:bold;vertical-align:top;">secure</td><td style="vertical-align:top;">:</td><td><div></div></td></tr><tr><td style="font-weight:bold;vertical-align:top;">version</td><td style="vertical-align:top;">:</td><td><div></div></td></tr></table></div></td></tr><tr><td style="font-weight:bold;vertical-align:top;">session_id_hw4</td><td style="vertical-align:top;">:</td><td><div>127.0.0.1-819ef6d2-f635-431e-ae25-4e06a60147e3<table><tr><td style="font-weight:bold;vertical-align:top;">comment</td><td style="vertical-align:top;">:</td><td><div></div></td></tr><tr><td style="font-weight:bold;vertical-align:top;">domain</td><td style="vertical-align:top;">:</td><td><div></div></td></tr><tr><td style="font-weight:bold;vertical-align:top;">expires</td><td style="vertical-align:top;">:</td><td><div></div></td></tr><tr><td style="font-weight:bold;vertical-align:top;">httponly</td><td style="vertical-align:top;">:</td><td><div></div></td></tr><tr><td style="font-weight:bold;vertical-align:top;">max-age</td><td style="vertical-align:top;">:</td><td><div></div></td></tr><tr><td style="font-weight:bold;vertical-align:top;">path</td><td style="vertical-align:top;">:</td><td><div></div></td></tr><tr><td style="font-weight:bold;vertical-align:top;">secure</td><td style="vertical-align:top;">:</td><td><div></div></td></tr><tr><td style="font-weight:bold;vertical-align:top;">version</td><td style="vertical-align:top;">:</td><td><div></div></td></tr></table></div></td></tr><tr><td style="font-weight:bold;vertical-align:top;">session_id_hw5</td><td style="vertical-align:top;">:</td><td><div>127.0.0.1-e4538985-1d0a-4e24-94f1-7ef7a2b57d9b<table><tr><td style="font-weight:bold;vertical-align:top;">comment</td><td style="vertical-align:top;">:</td><td><div></div></td></tr><tr><td style="font-weight:bold;vertical-align:top;">domain</td><td style="vertical-align:top;">:</td><td><div></div></td></tr><tr><td style="font-weight:bold;vertical-align:top;">expires</td><td style="vertical-align:top;">:</td><td><div></div></td></tr><tr><td style="font-weight:bold;vertical-align:top;">httponly</td><td style="vertical-align:top;">:</td><td><div></div></td></tr><tr><td style="font-weight:bold;vertical-align:top;">max-age</td><td style="vertical-align:top;">:</td><td><div></div></td></tr><tr><td style="font-weight:bold;vertical-align:top;">path</td><td style="vertical-align:top;">:</td><td><div></div></td></tr><tr><td style="font-weight:bold;vertical-align:top;">secure</td><td style="vertical-align:top;">:</td><td><div></div></td></tr><tr><td style="font-weight:bold;vertical-align:top;">version</td><td style="vertical-align:top;">:</td><td><div></div></td></tr></table></div></td></tr><tr><td style="font-weight:bold;vertical-align:top;">session_id_hw55</td><td style="vertical-align:top;">:</td><td><div>127.0.0.1-3f622658-539f-47a3-aa15-9aa99f169450<table><tr><td style="font-weight:bold;vertical-align:top;">comment</td><td style="vertical-align:top;">:</td><td><div></div></td></tr><tr><td style="font-weight:bold;vertical-align:top;">domain</td><td style="vertical-align:top;">:</td><td><div></div></td></tr><tr><td style="font-weight:bold;vertical-align:top;">expires</td><td style="vertical-align:top;">:</td><td><div></div></td></tr><tr><td style="font-weight:bold;vertical-align:top;">httponly</td><td style="vertical-align:top;">:</td><td><div></div></td></tr><tr><td style="font-weight:bold;vertical-align:top;">max-age</td><td style="vertical-align:top;">:</td><td><div></div></td></tr><tr><td style="font-weight:bold;vertical-align:top;">path</td><td style="vertical-align:top;">:</td><td><div></div></td></tr><tr><td style="font-weight:bold;vertical-align:top;">secure</td><td style="vertical-align:top;">:</td><td><div></div></td></tr><tr><td style="font-weight:bold;vertical-align:top;">version</td><td style="vertical-align:top;">:</td><td><div></div></td></tr></table></div></td></tr><tr><td style="font-weight:bold;vertical-align:top;">session_id_hw5example</td><td style="vertical-align:top;">:</td><td><div>127.0.0.1-c286e589-b2b9-4c26-9d23-57416c17380e<table><tr><td style="font-weight:bold;vertical-align:top;">comment</td><td style="vertical-align:top;">:</td><td><div></div></td></tr><tr><td style="font-weight:bold;vertical-align:top;">domain</td><td style="vertical-align:top;">:</td><td><div></div></td></tr><tr><td style="font-weight:bold;vertical-align:top;">expires</td><td style="vertical-align:top;">:</td><td><div></div></td></tr><tr><td style="font-weight:bold;vertical-align:top;">httponly</td><td style="vertical-align:top;">:</td><td><div></div></td></tr><tr><td style="font-weight:bold;vertical-align:top;">max-age</td><td style="vertical-align:top;">:</td><td><div></div></td></tr><tr><td style="font-weight:bold;vertical-align:top;">path</td><td style="vertical-align:top;">:</td><td><div></div></td></tr><tr><td style="font-weight:bold;vertical-align:top;">secure</td><td style="vertical-align:top;">:</td><td><div></div></td></tr><tr><td style="font-weight:bold;vertical-align:top;">version</td><td style="vertical-align:top;">:</td><td><div></div></td></tr></table></div></td></tr><tr><td style="font-weight:bold;vertical-align:top;">session_id_lecture10</td><td style="vertical-align:top;">:</td><td><div>127.0.0.1-216027e9-52ca-482e-afae-d49acca86f14<table><tr><td style="font-weight:bold;vertical-align:top;">comment</td><td style="vertical-align:top;">:</td><td><div></div></td></tr><tr><td style="font-weight:bold;vertical-align:top;">domain</td><td style="vertical-align:top;">:</td><td><div></div></td></tr><tr><td style="font-weight:bold;vertical-align:top;">expires</td><td style="vertical-align:top;">:</td><td><div></div></td></tr><tr><td style="font-weight:bold;vertical-align:top;">httponly</td><td style="vertical-align:top;">:</td><td><div></div></td></tr><tr><td style="font-weight:bold;vertical-align:top;">max-age</td><td style="vertical-align:top;">:</td><td><div></div></td></tr><tr><td style="font-weight:bold;vertical-align:top;">path</td><td style="vertical-align:top;">:</td><td><div></div></td></tr><tr><td style="font-weight:bold;vertical-align:top;">secure</td><td style="vertical-align:top;">:</td><td><div></div></td></tr><tr><td style="font-weight:bold;vertical-align:top;">version</td><td style="vertical-align:top;">:</td><td><div></div></td></tr></table></div></td></tr><tr><td style="font-weight:bold;vertical-align:top;">session_id_lecture15</td><td style="vertical-align:top;">:</td><td><div>127.0.0.1-702b6c5e-a2f5-426f-bdbd-ee6564bed690<table><tr><td style="font-weight:bold;vertical-align:top;">comment</td><td style="vertical-align:top;">:</td><td><div></div></td></tr><tr><td style="font-weight:bold;vertical-align:top;">domain</td><td style="vertical-align:top;">:</td><td><div></div></td></tr><tr><td style="font-weight:bold;vertical-align:top;">expires</td><td style="vertical-align:top;">:</td><td><div></div></td></tr><tr><td style="font-weight:bold;vertical-align:top;">httponly</td><td style="vertical-align:top;">:</td><td><div></div></td></tr><tr><td style="font-weight:bold;vertical-align:top;">max-age</td><td style="vertical-align:top;">:</td><td><div></div></td></tr><tr><td style="font-weight:bold;vertical-align:top;">path</td><td style="vertical-align:top;">:</td><td><div></div></td></tr><tr><td style="font-weight:bold;vertical-align:top;">secure</td><td style="vertical-align:top;">:</td><td><div></div></td></tr><tr><td style="font-weight:bold;vertical-align:top;">version</td><td style="vertical-align:top;">:</td><td><div></div></td></tr></table></div></td></tr><tr><td style="font-weight:bold;vertical-align:top;">session_id_lecture18</td><td style="vertical-align:top;">:</td><td><div>127.0.0.1-67f4af80-ac69-4452-9cd8-be937a0e35c7<table><tr><td style="font-weight:bold;vertical-align:top;">comment</td><td style="vertical-align:top;">:</td><td><div></div></td></tr><tr><td style="font-weight:bold;vertical-align:top;">domain</td><td style="vertical-align:top;">:</td><td><div></div></td></tr><tr><td style="font-weight:bold;vertical-align:top;">expires</td><td style="vertical-align:top;">:</td><td><div></div></td></tr><tr><td style="font-weight:bold;vertical-align:top;">httponly</td><td style="vertical-align:top;">:</td><td><div></div></td></tr><tr><td style="font-weight:bold;vertical-align:top;">max-age</td><td style="vertical-align:top;">:</td><td><div></div></td></tr><tr><td style="font-weight:bold;vertical-align:top;">path</td><td style="vertical-align:top;">:</td><td><div></div></td></tr><tr><td style="font-weight:bold;vertical-align:top;">secure</td><td style="vertical-align:top;">:</td><td><div></div></td></tr><tr><td style="font-weight:bold;vertical-align:top;">version</td><td style="vertical-align:top;">:</td><td><div></div></td></tr></table></div></td></tr><tr><td style="font-weight:bold;vertical-align:top;">session_id_lecture3</td><td style="vertical-align:top;">:</td><td><div>127.0.0.1-ed3a871b-0c2a-46dc-b1d6-80aa321ac9d5<table><tr><td style="font-weight:bold;vertical-align:top;">comment</td><td style="vertical-align:top;">:</td><td><div></div></td></tr><tr><td style="font-weight:bold;vertical-align:top;">domain</td><td style="vertical-align:top;">:</td><td><div></div></td></tr><tr><td style="font-weight:bold;vertical-align:top;">expires</td><td style="vertical-align:top;">:</td><td><div></div></td></tr><tr><td style="font-weight:bold;vertical-align:top;">httponly</td><td style="vertical-align:top;">:</td><td><div></div></td></tr><tr><td style="font-weight:bold;vertical-align:top;">max-age</td><td style="vertical-align:top;">:</td><td><div></div></td></tr><tr><td style="font-weight:bold;vertical-align:top;">path</td><td style="vertical-align:top;">:</td><td><div></div></td></tr><tr><td style="font-weight:bold;vertical-align:top;">secure</td><td style="vertical-align:top;">:</td><td><div></div></td></tr><tr><td style="font-weight:bold;vertical-align:top;">version</td><td style="vertical-align:top;">:</td><td><div></div></td></tr></table></div></td></tr><tr><td style="font-weight:bold;vertical-align:top;">session_id_lecture7</td><td style="vertical-align:top;">:</td><td><div>127.0.0.1-70512299-9cdb-43d8-ab0a-bfb1c1946489<table><tr><td style="font-weight:bold;vertical-align:top;">comment</td><td style="vertical-align:top;">:</td><td><div></div></td></tr><tr><td style="font-weight:bold;vertical-align:top;">domain</td><td style="vertical-align:top;">:</td><td><div></div></td></tr><tr><td style="font-weight:bold;vertical-align:top;">expires</td><td style="vertical-align:top;">:</td><td><div></div></td></tr><tr><td style="font-weight:bold;vertical-align:top;">httponly</td><td style="vertical-align:top;">:</td><td><div></div></td></tr><tr><td style="font-weight:bold;vertical-align:top;">max-age</td><td style="vertical-align:top;">:</td><td><div></div></td></tr><tr><td style="font-weight:bold;vertical-align:top;">path</td><td style="vertical-align:top;">:</td><td><div></div></td></tr><tr><td style="font-weight:bold;vertical-align:top;">secure</td><td style="vertical-align:top;">:</td><td><div></div></td></tr><tr><td style="font-weight:bold;vertical-align:top;">version</td><td style="vertical-align:top;">:</td><td><div></div></td></tr></table></div></td></tr><tr><td style="font-weight:bold;vertical-align:top;">session_id_start</td><td style="vertical-align:top;">:</td><td><div>127.0.0.1-06083ec8-b44a-4378-b398-3b432f9f087b<table><tr><td style="font-weight:bold;vertical-align:top;">comment</td><td style="vertical-align:top;">:</td><td><div></div></td></tr><tr><td style="font-weight:bold;vertical-align:top;">domain</td><td style="vertical-align:top;">:</td><td><div></div></td></tr><tr><td style="font-weight:bold;vertical-align:top;">expires</td><td style="vertical-align:top;">:</td><td><div></div></td></tr><tr><td style="font-weight:bold;vertical-align:top;">httponly</td><td style="vertical-align:top;">:</td><td><div></div></td></tr><tr><td style="font-weight:bold;vertical-align:top;">max-age</td><td style="vertical-align:top;">:</td><td><div></div></td></tr><tr><td style="font-weight:bold;vertical-align:top;">path</td><td style="vertical-align:top;">:</td><td><div></div></td></tr><tr><td style="font-weight:bold;vertical-align:top;">secure</td><td style="vertical-align:top;">:</td><td><div></div></td></tr><tr><td style="font-weight:bold;vertical-align:top;">version</td><td style="vertical-align:top;">:</td><td><div></div></td></tr></table></div></td></tr><tr><td style="font-weight:bold;vertical-align:top;">session_id_start1</td><td style="vertical-align:top;">:</td><td><div>127.0.0.1-8d9ed00d-81ff-4b61-9ae6-849ede0c121f<table><tr><td style="font-weight:bold;vertical-align:top;">comment</td><td style="vertical-align:top;">:</td><td><div></div></td></tr><tr><td style="font-weight:bold;vertical-align:top;">domain</td><td style="vertical-align:top;">:</td><td><div></div></td></tr><tr><td style="font-weight:bold;vertical-align:top;">expires</td><td style="vertical-align:top;">:</td><td><div></div></td></tr><tr><td style="font-weight:bold;vertical-align:top;">httponly</td><td style="vertical-align:top;">:</td><td><div></div></td></tr><tr><td style="font-weight:bold;vertical-align:top;">max-age</td><td style="vertical-align:top;">:</td><td><div></div></td></tr><tr><td style="font-weight:bold;vertical-align:top;">path</td><td style="vertical-align:top;">:</td><td><div></div></td></tr><tr><td style="font-weight:bold;vertical-align:top;">secure</td><td style="vertical-align:top;">:</td><td><div></div></td></tr><tr><td style="font-weight:bold;vertical-align:top;">version</td><td style="vertical-align:top;">:</td><td><div></div></td></tr></table></div></td></tr><tr><td style="font-weight:bold;vertical-align:top;">session_id_start2</td><td style="vertical-align:top;">:</td><td><div>127.0.0.1-c31987e0-d265-40a9-8abd-8c27a89ea6fc<table><tr><td style="font-weight:bold;vertical-align:top;">comment</td><td style="vertical-align:top;">:</td><td><div></div></td></tr><tr><td style="font-weight:bold;vertical-align:top;">domain</td><td style="vertical-align:top;">:</td><td><div></div></td></tr><tr><td style="font-weight:bold;vertical-align:top;">expires</td><td style="vertical-align:top;">:</td><td><div></div></td></tr><tr><td style="font-weight:bold;vertical-align:top;">httponly</td><td style="vertical-align:top;">:</td><td><div></div></td></tr><tr><td style="font-weight:bold;vertical-align:top;">max-age</td><td style="vertical-align:top;">:</td><td><div></div></td></tr><tr><td style="font-weight:bold;vertical-align:top;">path</td><td style="vertical-align:top;">:</td><td><div></div></td></tr><tr><td style="font-weight:bold;vertical-align:top;">secure</td><td style="vertical-align:top;">:</td><td><div></div></td></tr><tr><td style="font-weight:bold;vertical-align:top;">version</td><td style="vertical-align:top;">:</td><td><div></div></td></tr></table></div></td></tr><tr><td style="font-weight:bold;vertical-align:top;">session_id_try3</td><td style="vertical-align:top;">:</td><td><div>127.0.0.1-bc3d169b-c29f-4f5b-aa47-2e1ea91a0bee<table><tr><td style="font-weight:bold;vertical-align:top;">comment</td><td style="vertical-align:top;">:</td><td><div></div></td></tr><tr><td style="font-weight:bold;vertical-align:top;">domain</td><td style="vertical-align:top;">:</td><td><div></div></td></tr><tr><td style="font-weight:bold;vertical-align:top;">expires</td><td style="vertical-align:top;">:</td><td><div></div></td></tr><tr><td style="font-weight:bold;vertical-align:top;">httponly</td><td style="vertical-align:top;">:</td><td><div></div></td></tr><tr><td style="font-weight:bold;vertical-align:top;">max-age</td><td style="vertical-align:top;">:</td><td><div></div></td></tr><tr><td style="font-weight:bold;vertical-align:top;">path</td><td style="vertical-align:top;">:</td><td><div></div></td></tr><tr><td style="font-weight:bold;vertical-align:top;">secure</td><td style="vertical-align:top;">:</td><td><div></div></td></tr><tr><td style="font-weight:bold;vertical-align:top;">version</td><td style="vertical-align:top;">:</td><td><div></div></td></tr></table></div></td></tr><tr><td style="font-weight:bold;vertical-align:top;">session_id_try33</td><td style="vertical-align:top;">:</td><td><div>127.0.0.1-5c7b4121-eb4b-4bef-a8ab-ce0290dad1d0<table><tr><td style="font-weight:bold;vertical-align:top;">comment</td><td style="vertical-align:top;">:</td><td><div></div></td></tr><tr><td style="font-weight:bold;vertical-align:top;">domain</td><td style="vertical-align:top;">:</td><td><div></div></td></tr><tr><td style="font-weight:bold;vertical-align:top;">expires</td><td style="vertical-align:top;">:</td><td><div></div></td></tr><tr><td style="font-weight:bold;vertical-align:top;">httponly</td><td style="vertical-align:top;">:</td><td><div></div></td></tr><tr><td style="font-weight:bold;vertical-align:top;">max-age</td><td style="vertical-align:top;">:</td><td><div></div></td></tr><tr><td style="font-weight:bold;vertical-align:top;">path</td><td style="vertical-align:top;">:</td><td><div></div></td></tr><tr><td style="font-weight:bold;vertical-align:top;">secure</td><td style="vertical-align:top;">:</td><td><div></div></td></tr><tr><td style="font-weight:bold;vertical-align:top;">version</td><td style="vertical-align:top;">:</td><td><div></div></td></tr></table></div></td></tr><tr><td style="font-weight:bold;vertical-align:top;">session_id_try333</td><td style="vertical-align:top;">:</td><td><div>127.0.0.1-c2837ab6-e7ff-4b47-878c-57ac85e11f81<table><tr><td style="font-weight:bold;vertical-align:top;">comment</td><td style="vertical-align:top;">:</td><td><div></div></td></tr><tr><td style="font-weight:bold;vertical-align:top;">domain</td><td style="vertical-align:top;">:</td><td><div></div></td></tr><tr><td style="font-weight:bold;vertical-align:top;">expires</td><td style="vertical-align:top;">:</td><td><div></div></td></tr><tr><td style="font-weight:bold;vertical-align:top;">httponly</td><td style="vertical-align:top;">:</td><td><div></div></td></tr><tr><td style="font-weight:bold;vertical-align:top;">max-age</td><td style="vertical-align:top;">:</td><td><div></div></td></tr><tr><td style="font-weight:bold;vertical-align:top;">path</td><td style="vertical-align:top;">:</td><td><div></div></td></tr><tr><td style="font-weight:bold;vertical-align:top;">secure</td><td style="vertical-align:top;">:</td><td><div></div></td></tr><tr><td style="font-weight:bold;vertical-align:top;">version</td><td style="vertical-align:top;">:</td><td><div></div></td></tr></table></div></td></tr><tr><td style="font-weight:bold;vertical-align:top;">session_id_w</td><td style="vertical-align:top;">:</td><td><div>127.0.0.1-0876a4ab-5eaf-49e2-89e0-025091471046<table><tr><td style="font-weight:bold;vertical-align:top;">comment</td><td style="vertical-align:top;">:</td><td><div></div></td></tr><tr><td style="font-weight:bold;vertical-align:top;">domain</td><td style="vertical-align:top;">:</td><td><div></div></td></tr><tr><td style="font-weight:bold;vertical-align:top;">expires</td><td style="vertical-align:top;">:</td><td><div></div></td></tr><tr><td style="font-weight:bold;vertical-align:top;">httponly</td><td style="vertical-align:top;">:</td><td><div></div></td></tr><tr><td style="font-weight:bold;vertical-align:top;">max-age</td><td style="vertical-align:top;">:</td><td><div></div></td></tr><tr><td style="font-weight:bold;vertical-align:top;">path</td><td style="vertical-align:top;">:</td><td><div></div></td></tr><tr><td style="font-weight:bold;vertical-align:top;">secure</td><td style="vertical-align:top;">:</td><td><div></div></td></tr><tr><td style="font-weight:bold;vertical-align:top;">version</td><td style="vertical-align:top;">:</td><td><div></div></td></tr></table></div></td></tr><tr><td style="font-weight:bold;vertical-align:top;">session_id_welcome</td><td style="vertical-align:top;">:</td><td><div>127.0.0.1-eb13301e-b9b1-4194-a19e-fad01d4ab2ad<table><tr><td style="font-weight:bold;vertical-align:top;">comment</td><td style="vertical-align:top;">:</td><td><div></div></td></tr><tr><td style="font-weight:bold;vertical-align:top;">domain</td><td style="vertical-align:top;">:</td><td><div></div></td></tr><tr><td style="font-weight:bold;vertical-align:top;">expires</td><td style="vertical-align:top;">:</td><td><div></div></td></tr><tr><td style="font-weight:bold;vertical-align:top;">httponly</td><td style="vertical-align:top;">:</td><td><div></div></td></tr><tr><td style="font-weight:bold;vertical-align:top;">max-age</td><td style="vertical-align:top;">:</td><td><div></div></td></tr><tr><td style="font-weight:bold;vertical-align:top;">path</td><td style="vertical-align:top;">:</td><td><div></div></td></tr><tr><td style="font-weight:bold;vertical-align:top;">secure</td><td style="vertical-align:top;">:</td><td><div></div></td></tr><tr><td style="font-weight:bold;vertical-align:top;">version</td><td style="vertical-align:top;">:</td><td><div></div></td></tr></table></div></td></tr></table></div></td></tr><tr><td style="font-weight:bold;vertical-align:top;">env</td><td style="vertical-align:top;">:</td><td><div><table><tr><td style="font-weight:bold;vertical-align:top;">HTTP_ACCEPT</td><td style="vertical-align:top;">:</td><td><div>text/html,application/xhtml+xml,application/xml;q=0.9,image/webp,*/*;q=0.8</div></td></tr><tr><td style="font-weight:bold;vertical-align:top;">HTTP_ACCEPT_ENCODING</td><td style="vertical-align:top;">:</td><td><div>gzip, deflate, sdch</div></td></tr><tr><td style="font-weight:bold;vertical-align:top;">HTTP_ACCEPT_LANGUAGE</td><td style="vertical-align:top;">:</td><td><div>en-US,en;q=0.8</div></td></tr><tr><td style="font-weight:bold;vertical-align:top;">HTTP_CACHE_CONTROL</td><td style="vertical-align:top;">:</td><td><div>max-age=0</div></td></tr><tr><td style="font-weight:bold;vertical-align:top;">HTTP_CONNECTION</td><td style="vertical-align:top;">:</td><td><div>keep-alive</div></td></tr><tr><td style="font-weight:bold;vertical-align:top;">HTTP_COOKIE</td><td style="vertical-align:top;">:</td><td><div>session_id_lecture3=127.0.0.1-ed3a871b-0c2a-46dc-b1d6-80aa321ac9d5; session_id_hw22=127.0.0.1-386f91d8-bd36-41a9-a8a7-ad5c841e93a9; session_id_findme=127.0.0.1-c855cd70-ec74-4477-b817-45f84cdb44b3; session_id_grade2_1=127.0.0.1-717ae13b-ddd3-4047-9b3f-318399fdc37e; session_id_grade2_5=127.0.0.1-80c6ad74-f9d2-4098-8ee4-69815a9a101c; session_id_grade2_4=127.0.0.1-eafafab6-b7d2-40b0-8958-a77c0edf096a; session_id_grade2_3=127.0.0.1-72cea149-97b1-4cf5-bd93-b7897a995f8c; session_id_grade2_2=127.0.0.1-ef1bfd1d-77f4-4791-8046-9706c3e08430; session_id_lecture7=127.0.0.1-70512299-9cdb-43d8-ab0a-bfb1c1946489; session_id_try3=127.0.0.1-bc3d169b-c29f-4f5b-aa47-2e1ea91a0bee; session_id_try33=127.0.0.1-5c7b4121-eb4b-4bef-a8ab-ce0290dad1d0; session_id_try333=127.0.0.1-c2837ab6-e7ff-4b47-878c-57ac85e11f81; session_id_lecture10=127.0.0.1-216027e9-52ca-482e-afae-d49acca86f14; session_id_grade3_1=127.0.0.1-b9b59c77-0c02-4f90-8579-bc7acb1f4da0; session_id_grade3_2=127.0.0.1-63bfe680-7781-4d34-acd4-aa9fe4505b64; session_id_grade3_3=127.0.0.1-cc8b1c7b-0abf-4b45-879f-1cfbe31e8434; session_id_grade3_4=127.0.0.1-3853ab94-69d2-4f60-8f2c-fe26101dcb25; session_id_grade3_5=127.0.0.1-fd9e7862-6d1d-4a24-82b8-607fce60abea; session_id_grade4_1=127.0.0.1-59ecffa3-e555-4f9c-a4b3-55f3cee9f217; session_id_grade4_2=127.0.0.1-7ea09a42-edeb-4f19-9e27-87e18e3ee42a; session_id_lecture18=127.0.0.1-67f4af80-ac69-4452-9cd8-be937a0e35c7; session_id_lecture15=127.0.0.1-702b6c5e-a2f5-426f-bdbd-ee6564bed690; session_id_grade5_3=127.0.0.1-6cc90f9c-ece4-468d-a988-50b89b6eb5c6; session_id_grade5_6=127.0.0.1-52020401-259f-4617-92db-38b1c58323f2; _ga=GA1.1.1990347274.1448945572; session_id_grade5_4=127.0.0.1-64828803-c406-456f-96f7-86f0229fbd94; session_id_grade5_2=127.0.0.1-1e25e22b-c762-465f-aabb-f9d43a3d20aa; session_id_grade5_1=127.0.0.1-a261efde-be4a-4d97-9eae-a156a27691c3; session_id_hw55=127.0.0.1-3f622658-539f-47a3-aa15-9aa99f169450; session_id_hw35=127.0.0.1-e2259116-b2fa-4f9c-aeea-37db7b2bc1e2; session_id_hw33=127.0.0.1-f31fd18b-7111-4578-9aab-1645a2a5e594; session_id_w=127.0.0.1-0876a4ab-5eaf-49e2-89e0-025091471046; session_id_5thassignment=127.0.0.1-c40f8dd3-8f7c-4bc9-b4d3-c942fef319be; session_id_hw2=127.0.0.1-f0ec66f4-373f-4a99-964e-897d40728013; session_id_hw4=127.0.0.1-819ef6d2-f635-431e-ae25-4e06a60147e3; session_id_hw5=127.0.0.1-e4538985-1d0a-4e24-94f1-7ef7a2b57d9b; session_id_grade5_5=127.0.0.1-75a33eff-d58e-4729-a1ca-b8b856cc2fe4; session_id_hw5example=127.0.0.1-c286e589-b2b9-4c26-9d23-57416c17380e; session_id_183final=127.0.0.1-b60957c1-efe7-4c5b-ae44-3114d8af1346; session_id_final_app=127.0.0.1-41a14d97-5132-4d61-866a-f8227a9eb725; session_id_welcome=127.0.0.1-eb13301e-b9b1-4194-a19e-fad01d4ab2ad; session_id_start2=127.0.0.1-c31987e0-d265-40a9-8abd-8c27a89ea6fc; session_id_admin=127.0.0.1-c0d45b2d-3093-46f2-b069-508786ff439a; session_id_hw3=127.0.0.1-9cdd1bc7-d3c6-4f0c-a0fe-3756de66d557; session_id_start=127.0.0.1-06083ec8-b44a-4378-b398-3b432f9f087b; session_id_start1=127.0.0.1-8d9ed00d-81ff-4b61-9ae6-849ede0c121f</div></td></tr><tr><td style="font-weight:bold;vertical-align:top;">HTTP_HOST</td><td style="vertical-align:top;">:</td><td><div>127.0.0.1:8800</div></td></tr><tr><td style="font-weight:bold;vertical-align:top;">HTTP_REFERER</td><td style="vertical-align:top;">:</td><td><div>http://127.0.0.1:8800/start1/default/index</div></td></tr><tr><td style="font-weight:bold;vertical-align:top;">HTTP_UPGRADE_INSECURE_REQUESTS</td><td style="vertical-align:top;">:</td><td><div>1</div></td></tr><tr><td style="font-weight:bold;vertical-align:top;">HTTP_USER_AGENT</td><td style="vertical-align:top;">:</td><td><div>Mozilla/5.0 (Windows NT 6.3; WOW64) AppleWebKit/537.36 (KHTML, like Gecko) Chrome/47.0.2526.73 Safari/537.36</div></td></tr><tr><td style="font-weight:bold;vertical-align:top;">PATH_INFO</td><td style="vertical-align:top;">:</td><td><div>/start1/default/boards/6</div></td></tr><tr><td style="font-weight:bold;vertical-align:top;">QUERY_STRING</td><td style="vertical-align:top;">:</td><td><div></div></td></tr><tr><td style="font-weight:bold;vertical-align:top;">REMOTE_ADDR</td><td style="vertical-align:top;">:</td><td><div>127.0.0.1</div></td></tr><tr><td style="font-weight:bold;vertical-align:top;">REMOTE_PORT</td><td style="vertical-align:top;">:</td><td><div>57321</div></td></tr><tr><td style="font-weight:bold;vertical-align:top;">REQUEST_METHOD</td><td style="vertical-align:top;">:</td><td><div>GET</div></td></tr><tr><td style="font-weight:bold;vertical-align:top;">SCRIPT_NAME</td><td style="vertical-align:top;">:</td><td><div></div></td></tr><tr><td style="font-weight:bold;vertical-align:top;">SERVER_NAME</td><td style="vertical-align:top;">:</td><td><div>Bryant</div></td></tr><tr><td style="font-weight:bold;vertical-align:top;">SERVER_PORT</td><td style="vertical-align:top;">:</td><td><div>8800</div></td></tr><tr><td style="font-weight:bold;vertical-align:top;">SERVER_PROTOCOL</td><td style="vertical-align:top;">:</td><td><div>HTTP/1.1</div></td></tr><tr><td style="font-weight:bold;vertical-align:top;">SERVER_SOFTWARE</td><td style="vertical-align:top;">:</td><td><div>Rocket 1.2.6</div></td></tr><tr><td style="font-weight:bold;vertical-align:top;">app_folders</td><td style="vertical-align:top;">:</td><td><div>set([&#x27;C:\\\\Users\\\\bryant\\\\Desktop\\\\web2py_src\\\\web2py\\\\applications\\\\start2\\\\&#x27;, &#x27;C:\\\\Users\\\\bryant\\\\Desktop\\\\web2py_src\\\\web2py\\\\applications\\\\admin\\\\&#x27;, &#x27;C:\\\\Users\\\\bryant\\\\Desktop\\\\web2py_src\\\\web2py\\\\applications\\\\start\\\\&#x27;, &#x27;C:\\\\Users\\\\bryant\\\\Desktop\\\\web2py_src\\\\web2py\\\\applications\\\\welcome\\\\&#x27;, &#x27;C:\\\\Users\\\\bryant\\\\Desktop\\\\web2py_src\\\\web2py\\\\applications\\\\hw3\\\\&#x27;, &#x27;C:\\\\Users\\\\bryant\\\\Desktop\\\\web2py_src\\\\web2py\\\\applications\\\\start1\\\\&#x27;])</div></td></tr><tr><td style="font-weight:bold;vertical-align:top;">applications_parent</td><td style="vertical-align:top;">:</td><td><div>C:\\Users\\bryant\\Desktop\\web2py_src\\web2py</div></td></tr><tr><td style="font-weight:bold;vertical-align:top;">cmd_args</td><td style="vertical-align:top;">:</td><td><div><table></table></div></td></tr><tr><td style="font-weight:bold;vertical-align:top;">cmd_options</td><td style="vertical-align:top;">:</td><td><div>&lt;Values at 0x39f4a88: {&#x27;verbose&#x27;: False, &#x27;ip&#x27;: &#x27;127.0.0.1&#x27;, &#x27;debuglevel&#x27;: 30, &#x27;with_scheduler&#x27;: False, &#x27;ips&#x27;: [&#x27;2001:0:5ef5:79fd:200c:3b60:3f57:fef0&#x27;, &#x27;fe80::c5f5:1a09:563a:d2c5%4&#x27;, &#x27;192.168.1.15&#x27;, &#x27;fe80::200c:3b60:3f57:fef0%7&#x27;], &#x27;shutdown_timeout&#x27;: 5, &#x27;taskbar&#x27;: False, &#x27;with_coverage&#x27;: False, &#x27;scheduler_groups&#x27;: None, &#x27;port&#x27;: 8800, &#x27;maxthreads&#x27;: None, &#x27;softcron&#x27;: False, &#x27;server_name&#x27;: &#x27;Bryant&#x27;, &#x27;bpython&#x27;: False, &#x27;nogui&#x27;: False, &#x27;pid_filename&#x27;: &#x27;httpserver.pid&#x27;, &#x27;print_errors&#x27;: True, &#x27;extcron&#x27;: False, &#x27;runcron&#x27;: False, &#x27;run_system_tests&#x27;: False, &#x27;test&#x27;: None, &#x27;folder&#x27;: &#x27;C:\\\\Users\\\\bryant\\\\Desktop\\\\web2py_src\\\\web2py&#x27;, &#x27;config&#x27;: &#x27;&#x27;, &#x27;minthreads&#x27;: None, &#x27;shell&#x27;: None, &#x27;run&#x27;: &#x27;&#x27;, &#x27;log_filename&#x27;: &#x27;httpserver.log&#x27;, &#x27;profiler_dir&#x27;: None, &#x27;args&#x27;: [&#x27;&#x27;], &#x27;socket_timeout&#x27;: 5, &#x27;ssl_ca_certificate&#x27;: None, &#x27;scheduler&#x27;: None, &#x27;interfaces&#x27;: None, &#x27;ssl_private_key&#x27;: &#x27;&#x27;, &#x27;gae&#x27;: None, &#x27;password&#x27;: &#x27;asdf&#x27;, &#x27;request_queue_size&#x27;: 5, &#x27;ssl_certificate&#x27;: &#x27;&#x27;, &#x27;cronjob&#x27;: False, &#x27;numthreads&#x27;: None, &#x27;quiet&#x27;: False, &#x27;import_models&#x27;: False, &#x27;timeout&#x27;: 10, &#x27;plain&#x27;: False, &#x27;nobanner&#x27;: False}&gt;</div></td></tr><tr><td style="font-weight:bold;vertical-align:top;">db_sessions</td><td style="vertical-align:top;">:</td><td><div>set([])</div></td></tr><tr><td style="font-weight:bold;vertical-align:top;">debugging</td><td style="vertical-align:top;">:</td><td><div>False</div></td></tr><tr><td style="font-weight:bold;vertical-align:top;">gluon_parent</td><td style="vertical-align:top;">:</td><td><div>C:\\Users\\bryant\\Desktop\\web2py_src\\web2py</div></td></tr><tr><td style="font-weight:bold;vertical-align:top;">http_accept</td><td style="vertical-align:top;">:</td><td><div>text/html,application/xhtml+xml,application/xml;q=0.9,image/webp,*/*;q=0.8</div></td></tr><tr><td style="font-weight:bold;vertical-align:top;">http_accept_encoding</td><td style="vertical-align:top;">:</td><td><div>gzip, deflate, sdch</div></td></tr><tr><td style="font-weight:bold;vertical-align:top;">http_accept_language</td><td style="vertical-align:top;">:</td><td><div>en-US,en;q=0.8</div></td></tr><tr><td style="font-weight:bold;vertical-align:top;">http_cache_control</td><td style="vertical-align:top;">:</td><td><div>max-age=0</div></td></tr><tr><td style="font-weight:bold;vertical-align:top;">http_connection</td><td style="vertical-align:top;">:</td><td><div>keep-alive</div></td></tr><tr><td style="font-weight:bold;vertical-align:top;">http_cookie</td><td style="vertical-align:top;">:</td><td><div>session_id_lecture3=127.0.0.1-ed3a871b-0c2a-46dc-b1d6-80aa321ac9d5; session_id_hw22=127.0.0.1-386f91d8-bd36-41a9-a8a7-ad5c841e93a9; session_id_findme=127.0.0.1-c855cd70-ec74-4477-b817-45f84cdb44b3; session_id_grade2_1=127.0.0.1-717ae13b-ddd3-4047-9b3f-318399fdc37e; session_id_grade2_5=127.0.0.1-80c6ad74-f9d2-4098-8ee4-69815a9a101c; session_id_grade2_4=127.0.0.1-eafafab6-b7d2-40b0-8958-a77c0edf096a; session_id_grade2_3=127.0.0.1-72cea149-97b1-4cf5-bd93-b7897a995f8c; session_id_grade2_2=127.0.0.1-ef1bfd1d-77f4-4791-8046-9706c3e08430; session_id_lecture7=127.0.0.1-70512299-9cdb-43d8-ab0a-bfb1c1946489; session_id_try3=127.0.0.1-bc3d169b-c29f-4f5b-aa47-2e1ea91a0bee; session_id_try33=127.0.0.1-5c7b4121-eb4b-4bef-a8ab-ce0290dad1d0; session_id_try333=127.0.0.1-c2837ab6-e7ff-4b47-878c-57ac85e11f81; session_id_lecture10=127.0.0.1-216027e9-52ca-482e-afae-d49acca86f14; session_id_grade3_1=127.0.0.1-b9b59c77-0c02-4f90-8579-bc7acb1f4da0; session_id_grade3_2=127.0.0.1-63bfe680-7781-4d34-acd4-aa9fe4505b64; session_id_grade3_3=127.0.0.1-cc8b1c7b-0abf-4b45-879f-1cfbe31e8434; session_id_grade3_4=127.0.0.1-3853ab94-69d2-4f60-8f2c-fe26101dcb25; session_id_grade3_5=127.0.0.1-fd9e7862-6d1d-4a24-82b8-607fce60abea; session_id_grade4_1=127.0.0.1-59ecffa3-e555-4f9c-a4b3-55f3cee9f217; session_id_grade4_2=127.0.0.1-7ea09a42-edeb-4f19-9e27-87e18e3ee42a; session_id_lecture18=127.0.0.1-67f4af80-ac69-4452-9cd8-be937a0e35c7; session_id_lecture15=127.0.0.1-702b6c5e-a2f5-426f-bdbd-ee6564bed690; session_id_grade5_3=127.0.0.1-6cc90f9c-ece4-468d-a988-50b89b6eb5c6; session_id_grade5_6=127.0.0.1-52020401-259f-4617-92db-38b1c58323f2; _ga=GA1.1.1990347274.1448945572; session_id_grade5_4=127.0.0.1-64828803-c406-456f-96f7-86f0229fbd94; session_id_grade5_2=127.0.0.1-1e25e22b-c762-465f-aabb-f9d43a3d20aa; session_id_grade5_1=127.0.0.1-a261efde-be4a-4d97-9eae-a156a27691c3; session_id_hw55=127.0.0.1-3f622658-539f-47a3-aa15-9aa99f169450; session_id_hw35=127.0.0.1-e2259116-b2fa-4f9c-aeea-37db7b2bc1e2; session_id_hw33=127.0.0.1-f31fd18b-7111-4578-9aab-1645a2a5e594; session_id_w=127.0.0.1-0876a4ab-5eaf-49e2-89e0-025091471046; session_id_5thassignment=127.0.0.1-c40f8dd3-8f7c-4bc9-b4d3-c942fef319be; session_id_hw2=127.0.0.1-f0ec66f4-373f-4a99-964e-897d40728013; session_id_hw4=127.0.0.1-819ef6d2-f635-431e-ae25-4e06a60147e3; session_id_hw5=127.0.0.1-e4538985-1d0a-4e24-94f1-7ef7a2b57d9b; session_id_grade5_5=127.0.0.1-75a33eff-d58e-4729-a1ca-b8b856cc2fe4; session_id_hw5example=127.0.0.1-c286e589-b2b9-4c26-9d23-57416c17380e; session_id_183final=127.0.0.1-b60957c1-efe7-4c5b-ae44-3114d8af1346; session_id_final_app=127.0.0.1-41a14d97-5132-4d61-866a-f8227a9eb725; session_id_welcome=127.0.0.1-eb13301e-b9b1-4194-a19e-fad01d4ab2ad; session_id_start2=127.0.0.1-c31987e0-d265-40a9-8abd-8c27a89ea6fc; session_id_admin=127.0.0.1-c0d45b2d-3093-46f2-b069-508786ff439a; session_id_hw3=127.0.0.1-9cdd1bc7-d3c6-4f0c-a0fe-3756de66d557; session_id_start=127.0.0.1-06083ec8-b44a-4378-b398-3b432f9f087b; session_id_start1=127.0.0.1-8d9ed00d-81ff-4b61-9ae6-849ede0c121f</div></td></tr><tr><td style="font-weight:bold;vertical-align:top;">http_host</td><td style="vertical-align:top;">:</td><td><div>127.0.0.1:8800</div></td></tr><tr><td style="font-weight:bold;vertical-align:top;">http_referer</td><td style="vertical-align:top;">:</td><td><div>http://127.0.0.1:8800/start1/default/index</div></td></tr><tr><td style="font-weight:bold;vertical-align:top;">http_upgrade_insecure_requests</td><td style="vertical-align:top;">:</td><td><div>1</div></td></tr><tr><td style="font-weight:bold;vertical-align:top;">http_user_agent</td><td style="vertical-align:top;">:</td><td><div>Mozilla/5.0 (Windows NT 6.3; WOW64) AppleWebKit/537.36 (KHTML, like Gecko) Chrome/47.0.2526.73 Safari/537.36</div></td></tr><tr><td style="font-weight:bold;vertical-align:top;">is_jython</td><td style="vertical-align:top;">:</td><td><div>False</div></td></tr><tr><td style="font-weight:bold;vertical-align:top;">is_pypy</td><td style="vertical-align:top;">:</td><td><div>False</div></td></tr><tr><td style="font-weight:bold;vertical-align:top;">is_source</td><td style="vertical-align:top;">:</td><td><div>True</div></td></tr><tr><td style="font-weight:bold;vertical-align:top;">local_hosts</td><td style="vertical-align:top;">:</td><td><div><table><tr><td><div>192.168.1.15</div></td></tr><tr><td><div>fe80::200c:3b60:3f57:fef0%7</div></td></tr><tr><td><div>::ffff:127.0.0.1</div></td></tr><tr><td><div>::1</div></td></tr><tr><td><div>2001:0:5ef5:79fd:200c:3b60:3f57:fef0</div></td></tr><tr><td><div>fe80::c5f5:1a09:563a:d2c5%4</div></td></tr><tr><td><div>Bryant</div></td></tr><tr><td><div>127.0.0.1</div></td></tr></table></div></td></tr><tr><td style="font-weight:bold;vertical-align:top;">path_info</td><td style="vertical-align:top;">:</td><td><div>/start1/default/boards/6</div></td></tr><tr><td style="font-weight:bold;vertical-align:top;">query_string</td><td style="vertical-align:top;">:</td><td><div></div></td></tr><tr><td style="font-weight:bold;vertical-align:top;">remote_addr</td><td style="vertical-align:top;">:</td><td><div>127.0.0.1</div></td></tr><tr><td style="font-weight:bold;vertical-align:top;">remote_port</td><td style="vertical-align:top;">:</td><td><div>57321</div></td></tr><tr><td style="font-weight:bold;vertical-align:top;">request_method</td><td style="vertical-align:top;">:</td><td><div>GET</div></td></tr><tr><td style="font-weight:bold;vertical-align:top;">request_uri</td><td style="vertical-align:top;">:</td><td><div>/start1/default/boards/6</div></td></tr><tr><td style="font-weight:bold;vertical-align:top;">script_name</td><td style="vertical-align:top;">:</td><td><div></div></td></tr><tr><td style="font-weight:bold;vertical-align:top;">server_name</td><td style="vertical-align:top;">:</td><td><div>Bryant</div></td></tr><tr><td style="font-weight:bold;vertical-align:top;">server_port</td><td style="vertical-align:top;">:</td><td><div>8800</div></td></tr><tr><td style="font-weight:bold;vertical-align:top;">server_protocol</td><td style="vertical-align:top;">:</td><td><div>HTTP/1.1</div></td></tr><tr><td style="font-weight:bold;vertical-align:top;">server_software</td><td style="vertical-align:top;">:</td><td><div>Rocket 1.2.6</div></td></tr><tr><td style="font-weight:bold;vertical-align:top;">web2py_path</td><td style="vertical-align:top;">:</td><td><div>C:\\Users\\bryant\\Desktop\\web2py_src\\web2py</div></td></tr><tr><td style="font-weight:bold;vertical-align:top;">web2py_version</td><td style="vertical-align:top;">:</td><td><div>2.12.3-stable+timestamp.2015.08.19.00.18.03</div></td></tr><tr><td style="font-weight:bold;vertical-align:top;">wsgi.errors</td><td style="vertical-align:top;">:</td><td><div>&lt;open file &#x27;&lt;stderr&gt;&#x27;, mode &#x27;w&#x27; at 0x0000000001D4B150&gt;</div></td></tr><tr><td style="font-weight:bold;vertical-align:top;">wsgi.file_wrapper</td><td style="vertical-align:top;">:</td><td><div>&lt;class wsgiref.util.FileWrapper at 0x000000000396C108&gt;</div></td></tr><tr><td style="font-weight:bold;vertical-align:top;">wsgi.input</td><td style="vertical-align:top;">:</td><td><div>&lt;socket._fileobject object at 0x00000000089F8750&gt;</div></td></tr><tr><td style="font-weight:bold;vertical-align:top;">wsgi.multiprocess</td><td style="vertical-align:top;">:</td><td><div>False</div></td></tr><tr><td style="font-weight:bold;vertical-align:top;">wsgi.multithread</td><td style="vertical-align:top;">:</td><td><div>True</div></td></tr><tr><td style="font-weight:bold;vertical-align:top;">wsgi.run_once</td><td style="vertical-align:top;">:</td><td><div>False</div></td></tr><tr><td style="font-weight:bold;vertical-align:top;">wsgi.url_scheme</td><td style="vertical-align:top;">:</td><td><div>http</div></td></tr><tr><td style="font-weight:bold;vertical-align:top;">wsgi.version</td><td style="vertical-align:top;">:</td><td><div><table><tr><td><div>1</div></td></tr><tr><td><div>0</div></td></tr></table></div></td></tr><tr><td style="font-weight:bold;vertical-align:top;">wsgi_errors</td><td style="vertical-align:top;">:</td><td><div>&lt;open file &#x27;&lt;stderr&gt;&#x27;, mode &#x27;w&#x27; at 0x0000000001D4B150&gt;</div></td></tr><tr><td style="font-weight:bold;vertical-align:top;">wsgi_file_wrapper</td><td style="vertical-align:top;">:</td><td><div>&lt;class wsgiref.util.FileWrapper at 0x000000000396C108&gt;</div></td></tr><tr><td style="font-weight:bold;vertical-align:top;">wsgi_input</td><td style="vertical-align:top;">:</td><td><div>&lt;socket._fileobject object at 0x00000000089F8750&gt;</div></td></tr><tr><td style="font-weight:bold;vertical-align:top;">wsgi_multiprocess</td><td style="vertical-align:top;">:</td><td><div>False</div></td></tr><tr><td style="font-weight:bold;vertical-align:top;">wsgi_multithread</td><td style="vertical-align:top;">:</td><td><div>True</div></td></tr><tr><td style="font-weight:bold;vertical-align:top;">wsgi_run_once</td><td style="vertical-align:top;">:</td><td><div>False</div></td></tr><tr><td style="font-weight:bold;vertical-align:top;">wsgi_url_scheme</td><td style="vertical-align:top;">:</td><td><div>http</div></td></tr><tr><td style="font-weight:bold;vertical-align:top;">wsgi_version</td><td style="vertical-align:top;">:</td><td><div><table><tr><td><div>1</div></td></tr><tr><td><div>0</div></td></tr></table></div></td></tr></table></div></td></tr><tr><td style="font-weight:bold;vertical-align:top;">extension</td><td style="vertical-align:top;">:</td><td><div>html</div></td></tr><tr><td style="font-weight:bold;vertical-align:top;">folder</td><td style="vertical-align:top;">:</td><td><div>C:\\Users\\bryant\\Desktop\\web2py_src\\web2py\\applications\\start1\\</div></td></tr><tr><td style="font-weight:bold;vertical-align:top;">function</td><td style="vertical-align:top;">:</td><td><div>boards</div></td></tr><tr><td style="font-weight:bold;vertical-align:top;">global_settings</td><td style="vertical-align:top;">:</td><td><div><table><tr><td style="font-weight:bold;vertical-align:top;">app_folders</td><td style="vertical-align:top;">:</td><td><div>set([&#x27;C:\\\\Users\\\\bryant\\\\Desktop\\\\web2py_src\\\\web2py\\\\applications\\\\start2\\\\&#x27;, &#x27;C:\\\\Users\\\\bryant\\\\Desktop\\\\web2py_src\\\\web2py\\\\applications\\\\admin\\\\&#x27;, &#x27;C:\\\\Users\\\\bryant\\\\Desktop\\\\web2py_src\\\\web2py\\\\applications\\\\start\\\\&#x27;, &#x27;C:\\\\Users\\\\bryant\\\\Desktop\\\\web2py_src\\\\web2py\\\\applications\\\\welcome\\\\&#x27;, &#x27;C:\\\\Users\\\\bryant\\\\Desktop\\\\web2py_src\\\\web2py\\\\applications\\\\hw3\\\\&#x27;, &#x27;C:\\\\Users\\\\bryant\\\\Desktop\\\\web2py_src\\\\web2py\\\\applications\\\\start1\\\\&#x27;])</div></td></tr><tr><td style="font-weight:bold;vertical-align:top;">applications_parent</td><td style="vertical-align:top;">:</td><td><div>C:\\Users\\bryant\\Desktop\\web2py_src\\web2py</div></td></tr><tr><td style="font-weight:bold;vertical-align:top;">cmd_args</td><td style="vertical-align:top;">:</td><td><div><table></table></div></td></tr><tr><td style="font-weight:bold;vertical-align:top;">cmd_options</td><td style="vertical-align:top;">:</td><td><div>&lt;Values at 0x39f4a88: {&#x27;verbose&#x27;: False, &#x27;ip&#x27;: &#x27;127.0.0.1&#x27;, &#x27;debuglevel&#x27;: 30, &#x27;with_scheduler&#x27;: False, &#x27;ips&#x27;: [&#x27;2001:0:5ef5:79fd:200c:3b60:3f57:fef0&#x27;, &#x27;fe80::c5f5:1a09:563a:d2c5%4&#x27;, &#x27;192.168.1.15&#x27;, &#x27;fe80::200c:3b60:3f57:fef0%7&#x27;], &#x27;shutdown_timeout&#x27;: 5, &#x27;taskbar&#x27;: False, &#x27;with_coverage&#x27;: False, &#x27;scheduler_groups&#x27;: None, &#x27;port&#x27;: 8800, &#x27;maxthreads&#x27;: None, &#x27;softcron&#x27;: False, &#x27;server_name&#x27;: &#x27;Bryant&#x27;, &#x27;bpython&#x27;: False, &#x27;nogui&#x27;: False, &#x27;pid_filename&#x27;: &#x27;httpserver.pid&#x27;, &#x27;print_errors&#x27;: True, &#x27;extcron&#x27;: False, &#x27;runcron&#x27;: False, &#x27;run_system_tests&#x27;: False, &#x27;test&#x27;: None, &#x27;folder&#x27;: &#x27;C:\\\\Users\\\\bryant\\\\Desktop\\\\web2py_src\\\\web2py&#x27;, &#x27;config&#x27;: &#x27;&#x27;, &#x27;minthreads&#x27;: None, &#x27;shell&#x27;: None, &#x27;run&#x27;: &#x27;&#x27;, &#x27;log_filename&#x27;: &#x27;httpserver.log&#x27;, &#x27;profiler_dir&#x27;: None, &#x27;args&#x27;: [&#x27;&#x27;], &#x27;socket_timeout&#x27;: 5, &#x27;ssl_ca_certificate&#x27;: None, &#x27;scheduler&#x27;: None, &#x27;interfaces&#x27;: None, &#x27;ssl_private_key&#x27;: &#x27;&#x27;, &#x27;gae&#x27;: None, &#x27;password&#x27;: &#x27;asdf&#x27;, &#x27;request_queue_size&#x27;: 5, &#x27;ssl_certificate&#x27;: &#x27;&#x27;, &#x27;cronjob&#x27;: False, &#x27;numthreads&#x27;: None, &#x27;quiet&#x27;: False, &#x27;import_models&#x27;: False, &#x27;timeout&#x27;: 10, &#x27;plain&#x27;: False, &#x27;nobanner&#x27;: False}&gt;</div></td></tr><tr><td style="font-weight:bold;vertical-align:top;">db_sessions</td><td style="vertical-align:top;">:</td><td><div>set([])</div></td></tr><tr><td style="font-weight:bold;vertical-align:top;">debugging</td><td style="vertical-align:top;">:</td><td><div>False</div></td></tr><tr><td style="font-weight:bold;vertical-align:top;">gluon_parent</td><td style="vertical-align:top;">:</td><td><div>C:\\Users\\bryant\\Desktop\\web2py_src\\web2py</div></td></tr><tr><td style="font-weight:bold;vertical-align:top;">is_jython</td><td style="vertical-align:top;">:</td><td><div>False</div></td></tr><tr><td style="font-weight:bold;vertical-align:top;">is_pypy</td><td style="vertical-align:top;">:</td><td><div>False</div></td></tr><tr><td style="font-weight:bold;vertical-align:top;">is_source</td><td style="vertical-align:top;">:</td><td><div>True</div></td></tr><tr><td style="font-weight:bold;vertical-align:top;">local_hosts</td><td style="vertical-align:top;">:</td><td><div><table><tr><td><div>192.168.1.15</div></td></tr><tr><td><div>fe80::200c:3b60:3f57:fef0%7</div></td></tr><tr><td><div>::ffff:127.0.0.1</div></td></tr><tr><td><div>::1</div></td></tr><tr><td><div>2001:0:5ef5:79fd:200c:3b60:3f57:fef0</div></td></tr><tr><td><div>fe80::c5f5:1a09:563a:d2c5%4</div></td></tr><tr><td><div>Bryant</div></td></tr><tr><td><div>127.0.0.1</div></td></tr></table></div></td></tr><tr><td style="font-weight:bold;vertical-align:top;">web2py_version</td><td style="vertical-align:top;">:</td><td><div>2.12.3-stable+timestamp.2015.08.19.00.18.03</div></td></tr></table></div></td></tr><tr><td style="font-weight:bold;vertical-align:top;">is_https</td><td style="vertical-align:top;">:</td><td><div>False</div></td></tr><tr><td style="font-weight:bold;vertical-align:top;">is_local</td><td style="vertical-align:top;">:</td><td><div>True</div></td></tr><tr><td style="font-weight:bold;vertical-align:top;">is_restful</td><td style="vertical-align:top;">:</td><td><div>False</div></td></tr><tr><td style="font-weight:bold;vertical-align:top;">is_sheduler</td><td style="vertical-align:top;">:</td><td><div>None</div></td></tr><tr><td style="font-weight:bold;vertical-align:top;">is_shell</td><td style="vertical-align:top;">:</td><td><div>None</div></td></tr><tr><td style="font-weight:bold;vertical-align:top;">now</td><td style="vertical-align:top;">:</td><td><div>datetime.datetime(2015, 12, 9, 17, 47, 19, 192000)</div></td></tr><tr><td style="font-weight:bold;vertical-align:top;">raw_args</td><td style="vertical-align:top;">:</td><td><div>6</div></td></tr><tr><td style="font-weight:bold;vertical-align:top;">raw_extension</td><td style="vertical-align:top;">:</td><td><div>None</div></td></tr><tr><td style="font-weight:bold;vertical-align:top;">url</td><td style="vertical-align:top;">:</td><td><div>/start1/default/boards/6</div></td></tr><tr><td style="font-weight:bold;vertical-align:top;">utcnow</td><td style="vertical-align:top;">:</td><td><div>datetime.datetime(2015, 12, 10, 1, 47, 19, 192000)</div></td></tr><tr><td style="font-weight:bold;vertical-align:top;">wsgi</td><td style="vertical-align:top;">:</td><td><div>&lt;gluon.main.LazyWSGI object at 0x00000000083CB748&gt;</div></td></tr></table></div>'
tRp58
sS'frames'
p59
(lp60
(dp61
S'file'
p62
S'C:\\Users\\bryant\\Desktop\\web2py_src\\web2py\\gluon\\restricted.py'
p63
sS'dump'
p64
(dp65
S'environment'
p66
S"{'A': <class 'gluon.html.A'>, 'ANY_OF': <class 'gluon.validators.ANY_OF'>, 'ASSIGNJS': <function ASSIGNJS>, 'AppConfig': <function AppConfig>, 'Auth': <class 'gluon.tools.Auth'>, 'B': <class 'gluon.html.B'>, 'BEAUTIFY': <class 'gluon.html.BEAUTIFY'>, 'BODY': <class 'gluon.html.BODY'>, 'BR': <class 'gluon.html.BR'>, 'BUTTON': <class 'gluon.html.BUTTON'>, ...}"
p67
sS'ccode'
p68
S'<code object <module> at 00000000083E1F30, file ...ations\\start1\\views\\default/boards.html", line 1>'
p69
ssS'lnum'
p70
I227
sS'lines'
p71
(dp72
I224
S'            ccode = code'
p73
sI225
S'        else:'
p74
sI226
S'            ccode = compile2(code, layer)'
p75
sI227
S'        exec ccode in environment'
p76
sI228
S'    except HTTP:'
p77
sI229
S'        raise'
p78
sI230
S'    except RestrictedError:'
p79
sI231
S'        # do not encapsulate (obfuscate) the original RestrictedError'
p80
sI222
S'    try:'
p81
sI223
S'        if isinstance(code, types.CodeType):'
p82
ssS'call'
p83
S'(code=\'response.write(\\\'<!DOCTYPE html>\\\\n<!--[if (gt IE ..."></script>\\\\n  </body>\\\\n</html>\\\\n\\\', escape=False)\', environment={\'A\': <class \'gluon.html.A\'>, \'ANY_OF\': <class \'gluon.validators.ANY_OF\'>, \'ASSIGNJS\': <function ASSIGNJS>, \'AppConfig\': <function AppConfig>, \'Auth\': <class \'gluon.tools.Auth\'>, \'B\': <class \'gluon.html.B\'>, \'BEAUTIFY\': <class \'gluon.html.BEAUTIFY\'>, \'BODY\': <class \'gluon.html.BODY\'>, \'BR\': <class \'gluon.html.BR\'>, \'BUTTON\': <class \'gluon.html.BUTTON\'>, ...}, layer=r\'C:\\Users\\bryant\\Desktop\\web2py_src\\web2py\\applications\\start1\\views\\default/boards.html\')'
p84
sS'func'
p85
S'restricted'
p86
sa(dp87
g62
S'C:\\Users\\bryant\\Desktop\\web2py_src\\web2py\\applications\\start1\\views\\default\\boards.html'
p88
sg64
(dp89
S'div'
p90
S'undefined'
p91
ssg70
I111
sg71
(dp92
I102
S"    response.write('\\n      ', escape=False)"
p93
sI103
S'else:'
p94
sI104
S"    response.write('\\n      ', escape=False)"
p95
sI105
S"    response.write(A('Sign Out', _class='button', _href=URL('default', 'user', args=['logout'])))"
p96
sI106
S"    response.write('\\n      ', escape=False)"
p97
sI107
S'    pass'
p98
sI108
S'response.write(\'\\n    </div>\\n  </div>\\n\\n  <div class="message-wrapper">\\n    {% #if msg_len < 1 %}\\n      {% #if (page > 0) && (totalmessages <= 0) %}\\n      <span>SOMETHING BAD HAPPENED!</span>\\n      {% /if %}\\n      <span>No posts.</span>\\n    {% /if %}\\n    {% #msg_dict:iter %}\\n    <div class="message-box lfloat">\\n      <div class="message-date lfloat">\\n        Last edit: {% msg_time %}\\n      </div>\\n      {% #if user_id === creator %}\\n      <div class="message-editors rfloat">\\n      {% #if (typeof marked_boards !== \\\'undefined\\\') && (marked_boards.indexOf(id) >= 0)%}\\n        <a id="message-edit"><i class="fa fa-pencil" data-msgid={% id %} on-click="edit-msg"/></a>\\n        <a id="msg-delete"><i class="fa fa-times selected" data-msgid={% id %} on-click="mark-msg"/></a>\\n      {% else %}\\n        <a id="message-edit"><i class="fa fa-pencil" data-msgid={% id %} on-click="edit-msg"/></a>\\n        <a id="msg-delete"><i class="fa fa-times" data-msgid={% id %} on-click="mark-msg"/></a>\\n      {% /if %}\\n      </div>\\n      {% /if %}\\n      <div class="message-header">\\n        {% msg_title %}\\n      </div>\\n      <div class="message-contents">\\n        {% msg_id %}\\n      </div>\\n\\n      {% #if image %}\\n        <center> <img height="200" width="200" src="\', escape=False)'
p99
sI109
S"response.write(URL('default', 'download'))"
p100
sI110
S'response.write(\'/{% image %}" /> </center>\\n      {% /if %}\\n\\n      <img src="\', escape=False)'
p101
sI111
S"response.write(URL('default', 'download', args=picture_name))"
p102
sI112
S'response.write(\'" />\\n\\n      <div class="message-creator">\\n        by: {% creator_name %}\\n      </div>\\n    </div>\\n    {% /msg_dict %}\\n  </div>\\n\\n\\n  {% #if loading %}\\n  <div id="load_spinner">\\n    <i class="fa fa-spinner fa-pulse fa-4x"></i>\\n  </div>\\n  {% /if %}\\n\\n  <div class="page-footer">\\n    {% #if (totalmessages > items_per_page) || page %}\\n    <div class="page-info">\\n      Page {% page + 1 %} / {% Math.ceil(totalmessages/items_per_page) %}\\n    </div>\\n    {% /if %}\\n\\n    {% #if page %}\\n    <a class="button" on-click="load-prev">\', escape=False)'
p103
sI113
S'response.write(icon_circle_arrow_left)'
p104
sI114
S'response.write(\' Previous</a>\\n    {% /if %}\\n    {% #if totalmessages > items_per_page %}\\n    <a class="button" on-click="load-next">Next \', escape=False)'
p105
sI115
S'response.write(icon_circle_arrow_right)'
p106
sI116
S'response.write(\'</a>\\n    {% /if %}\\n  </div>\\n</script>\\n\\n\\n<!--- BEGIN ANGULAR FNS --->\\n<script>\\n$(function() {\\n  // Ractive object\\n  var MAIN = new Ractive({\\n    el: \\\'#target\\\',\\n    template: \\\'#template\\\',\\n    delimiters: [\\\'{%\\\', \\\'%}\\\'],\\n    tripleDelimiters: [\\\'{%%\\\', \\\'%%}\\\'],\\n    data: {\\n      msg_dict: {},\\n      items_per_page: 0,\\n      totalmessages: 0,\\n      page: 0,\\n      draft_id: "",\\n      active_draft_name: "",\\n      active_draft_desc: "",\\n      image: true,\\n      user_id: 0,\\n      msg_len: {},\\n      marked_boards: [],\\n      del_vis: false,\\n      form_vis: false,\\n      loading: true\\n    },\\n  });\\n\\n  load_messages();\\n  setInterval(function() {load_messages()}, 10000);\\n\\n  // Reloads the list of boards.\\n  function load_messages() {\\n    var curr_page = MAIN.get(\\\'page\\\');\\n    $.ajax("\', escape=False)'
p107
sI117
S"response.write(URL('default', 'load_messages', args=[id]))"
p108
sI118
S'response.write(\'",\\n      {\\n        data: {\\n          page: curr_page\\n        },\\n        method: \\\'POST\\\',\\n        success: function (data) {\\n          if (data[\\\'msg_len\\\'] === 0 && data[\\\'page\\\'] > 0) {\\n            MAIN.set(\\\'page\\\', data[\\\'page\\\'] - 1);\\n            load_messages();\\n            return;\\n          }\\n          MAIN.set(\\\'msg_dict\\\', data[\\\'msg_dict\\\']);\\n          MAIN.set(\\\'items_per_page\\\', data[\\\'items_per_page\\\']);\\n          MAIN.set(\\\'totalmessages\\\', data[\\\'totalmessages\\\']);\\n          MAIN.set(\\\'loading\\\', false);\\n          MAIN.set(\\\'user_id\\\', data[\\\'user_id\\\']);\\n          MAIN.set(\\\'msg_len\\\', data[\\\'msg_len\\\']);\\n          MAIN.set(\\\'page\\\', data[\\\'page\\\']);\\n        },\\n        fail: function() {\\n          $("#server_error").show();\\n        }\\n      }\\n    );\\n  }\\n\\n  function send_message(msg_title, msg_desc) {\\n    var call_draft_id = MAIN.get(\\\'draft_id\\\');\\n    $.ajax("\', escape=False)'
p109
sI119
S"response.write(URL('default', 'add_message'))"
p110
sI120
S'response.write(\'",\\n            {\\n              data: {\\n                id: call_draft_id,     // request.vars.id\\n                msg_title: msg_title,    // request.vars.brd_name\\n                msg_desc: msg_desc,     // request.vars.brd_desc\\n                msg_brd: "\', escape=False)'
p111
sI121
S'response.write(id)'
p112
ssg83
S'()'
p113
sg85
S'<module>'
p114
sasS'pyver'
p115
S'Python 2.7.10: C:\\Users\\bryant\\Anaconda\\python.exe (prefix: C:\\Users\\bryant\\Anaconda)'
p116
sS'session'
p117
g57
(S's\xe3\x08\x00\x00<div><table><tr><td style="font-weight:bold;vertical-align:top;">auth</td><td style="vertical-align:top;">:</td><td><div><table><tr><td style="font-weight:bold;vertical-align:top;">expiration</td><td style="vertical-align:top;">:</td><td><div>3600</div></td></tr><tr><td style="font-weight:bold;vertical-align:top;">hmac_key</td><td style="vertical-align:top;">:</td><td><div>97fca696-c287-47d2-b5b7-90da539cf94f</div></td></tr><tr><td style="font-weight:bold;vertical-align:top;">last_visit</td><td style="vertical-align:top;">:</td><td><div>datetime.datetime(2015, 12, 9, 17, 43, 38, 552000)</div></td></tr><tr><td style="font-weight:bold;vertical-align:top;">remember_me</td><td style="vertical-align:top;">:</td><td><div>False</div></td></tr><tr><td style="font-weight:bold;vertical-align:top;">user</td><td style="vertical-align:top;">:</td><td><div><table><tr><td style="font-weight:bold;vertical-align:top;">email</td><td style="vertical-align:top;">:</td><td><div>asdf@yahoo.com</div></td></tr><tr><td style="font-weight:bold;vertical-align:top;">first_name</td><td style="vertical-align:top;">:</td><td><div>asdf</div></td></tr><tr><td style="font-weight:bold;vertical-align:top;">id</td><td style="vertical-align:top;">:</td><td><div>1L</div></td></tr><tr><td style="font-weight:bold;vertical-align:top;">last_name</td><td style="vertical-align:top;">:</td><td><div>asdf</div></td></tr><tr><td style="font-weight:bold;vertical-align:top;">registration_id</td><td style="vertical-align:top;">:</td><td><div></div></td></tr><tr><td style="font-weight:bold;vertical-align:top;">registration_key</td><td style="vertical-align:top;">:</td><td><div></div></td></tr><tr><td style="font-weight:bold;vertical-align:top;">reset_password_key</td><td style="vertical-align:top;">:</td><td><div></div></td></tr></table></div></td></tr><tr><td style="font-weight:bold;vertical-align:top;">user_groups</td><td style="vertical-align:top;">:</td><td><div><table><tr><td style="font-weight:bold;vertical-align:top;">1</td><td style="vertical-align:top;">:</td><td><div>user_1</div></td></tr></table></div></td></tr></table></div></td></tr><tr><td style="font-weight:bold;vertical-align:top;">flash</td><td style="vertical-align:top;">:</td><td><div>None</div></td></tr></table></div>'
tRp118
sS'etype'
p119
S"<type 'exceptions.NameError'>"
p120
sS'date'
p121
S'Wed Dec 09 17:47:19 2015'
p122
sS'response'
p123
g57
(S's\x96@\x00\x00<div><table><tr><td style="font-weight:bold;vertical-align:top;">body</td><td style="vertical-align:top;">:</td><td><div>&lt;cStringIO.StringO object at 0x00000000089DFFB8&gt;</div></td></tr><tr><td style="font-weight:bold;vertical-align:top;">cookies</td><td style="vertical-align:top;">:</td><td><div><table><tr><td style="font-weight:bold;vertical-align:top;">session_id_start1</td><td style="vertical-align:top;">:</td><td><div>127.0.0.1-8d9ed00d-81ff-4b61-9ae6-849ede0c121f<table><tr><td style="font-weight:bold;vertical-align:top;">comment</td><td style="vertical-align:top;">:</td><td><div></div></td></tr><tr><td style="font-weight:bold;vertical-align:top;">domain</td><td style="vertical-align:top;">:</td><td><div></div></td></tr><tr><td style="font-weight:bold;vertical-align:top;">expires</td><td style="vertical-align:top;">:</td><td><div></div></td></tr><tr><td style="font-weight:bold;vertical-align:top;">httponly</td><td style="vertical-align:top;">:</td><td><div></div></td></tr><tr><td style="font-weight:bold;vertical-align:top;">max-age</td><td style="vertical-align:top;">:</td><td><div></div></td></tr><tr><td style="font-weight:bold;vertical-align:top;">path</td><td style="vertical-align:top;">:</td><td><div>/</div></td></tr><tr><td style="font-weight:bold;vertical-align:top;">secure</td><td style="vertical-align:top;">:</td><td><div></div></td></tr><tr><td style="font-weight:bold;vertical-align:top;">version</td><td style="vertical-align:top;">:</td><td><div></div></td></tr></table></div></td></tr></table></div></td></tr><tr><td style="font-weight:bold;vertical-align:top;">delimiters</td><td style="vertical-align:top;">:</td><td><div><table><tr><td><div>{{</div></td></tr><tr><td><div>}}</div></td></tr></table></div></td></tr><tr><td style="font-weight:bold;vertical-align:top;">files</td><td style="vertical-align:top;">:</td><td><div><table><tr><td><div>/start1/static/js/jquery.js</div></td></tr><tr><td><div>/start1/static/css/calendar.css</div></td></tr><tr><td><div>/start1/static/js/calendar.js</div></td></tr><tr><td><div>/start1/static/js/web2py.js</div></td></tr></table></div></td></tr><tr><td style="font-weight:bold;vertical-align:top;">flash</td><td style="vertical-align:top;">:</td><td><div></div></td></tr><tr><td style="font-weight:bold;vertical-align:top;">form_label_separator</td><td style="vertical-align:top;">:</td><td><div></div></td></tr><tr><td style="font-weight:bold;vertical-align:top;">formstyle</td><td style="vertical-align:top;">:</td><td><div>bootstrap3_inline</div></td></tr><tr><td style="font-weight:bold;vertical-align:top;">generic_patterns</td><td style="vertical-align:top;">:</td><td><div><table><tr><td><div>*</div></td></tr></table></div></td></tr><tr><td style="font-weight:bold;vertical-align:top;">google_analytics_id</td><td style="vertical-align:top;">:</td><td><div>None</div></td></tr><tr><td style="font-weight:bold;vertical-align:top;">headers</td><td style="vertical-align:top;">:</td><td><div><table><tr><td style="font-weight:bold;vertical-align:top;">X-Powered-By</td><td style="vertical-align:top;">:</td><td><div>web2py</div></td></tr></table></div></td></tr><tr><td style="font-weight:bold;vertical-align:top;">logo</td><td style="vertical-align:top;">:</td><td><div><a class="navbar-brand" href="http://www.web2py.com/" id="web2py-logo"><b>web<span>2</span>py</b>&trade;&nbsp;</a></div></td></tr><tr><td style="font-weight:bold;vertical-align:top;">menu</td><td style="vertical-align:top;">:</td><td><div><table><tr><td><div><table><tr><td><div>Home</div></td></tr><tr><td><div>False</div></td></tr><tr><td><div>/start1/default/index</div></td></tr><tr><td><div><table></table></div></td></tr></table></div></td></tr><tr><td><div><table><tr><td><div>My Sites</div></td></tr><tr><td><div>False</div></td></tr><tr><td><div>/admin/default/site</div></td></tr></table></div></td></tr><tr><td><div><table><tr><td><div>This App</div></td></tr><tr><td><div>False</div></td></tr><tr><td><div>#</div></td></tr><tr><td><div><table><tr><td><div><table><tr><td><div>Design</div></td></tr><tr><td><div>False</div></td></tr><tr><td><div>/admin/default/design/start1</div></td></tr></table></div></td></tr><tr><td><div><li class="divider"></li></div></td></tr><tr><td><div><table><tr><td><div>Controller</div></td></tr><tr><td><div>False</div></td></tr><tr><td><div>/admin/default/edit/start1/controllers/default.py</div></td></tr></table></div></td></tr><tr><td><div><table><tr><td><div>View</div></td></tr><tr><td><div>False</div></td></tr><tr><td><div>/admin/default/edit/start1/views/default/boards.html</div></td></tr></table></div></td></tr><tr><td><div><table><tr><td><div>DB Model</div></td></tr><tr><td><div>False</div></td></tr><tr><td><div>/admin/default/edit/start1/models/db.py</div></td></tr></table></div></td></tr><tr><td><div><table><tr><td><div>Menu Model</div></td></tr><tr><td><div>False</div></td></tr><tr><td><div>/admin/default/edit/start1/models/menu.py</div></td></tr></table></div></td></tr><tr><td><div><table><tr><td><div>Config.ini</div></td></tr><tr><td><div>False</div></td></tr><tr><td><div>/admin/default/edit/start1/private/appconfig.ini</div></td></tr></table></div></td></tr><tr><td><div><table><tr><td><div>Layout</div></td></tr><tr><td><div>False</div></td></tr><tr><td><div>/admin/default/edit/start1/views/layout.html</div></td></tr></table></div></td></tr><tr><td><div><table><tr><td><div>Stylesheet</div></td></tr><tr><td><div>False</div></td></tr><tr><td><div>/admin/default/edit/start1/static/css/web2py-bootstrap3.css</div></td></tr></table></div></td></tr><tr><td><div><table><tr><td><div>Database</div></td></tr><tr><td><div>False</div></td></tr><tr><td><div>/start1/appadmin/index</div></td></tr></table></div></td></tr><tr><td><div><table><tr><td><div>Errors</div></td></tr><tr><td><div>False</div></td></tr><tr><td><div>/admin/default/errors/start1</div></td></tr></table></div></td></tr><tr><td><div><table><tr><td><div>About</div></td></tr><tr><td><div>False</div></td></tr><tr><td><div>/admin/default/about/start1</div></td></tr></table></div></td></tr></table></div></td></tr></table></div></td></tr><tr><td><div><table><tr><td><div>web2py.com</div></td></tr><tr><td><div>False</div></td></tr><tr><td><div>#</div></td></tr><tr><td><div><table><tr><td><div><table><tr><td><div>Download</div></td></tr><tr><td><div>False</div></td></tr><tr><td><div>http://www.web2py.com/examples/default/download</div></td></tr></table></div></td></tr><tr><td><div><table><tr><td><div>Support</div></td></tr><tr><td><div>False</div></td></tr><tr><td><div>http://www.web2py.com/examples/default/support</div></td></tr></table></div></td></tr><tr><td><div><table><tr><td><div>Demo</div></td></tr><tr><td><div>False</div></td></tr><tr><td><div>http://web2py.com/demo_admin</div></td></tr></table></div></td></tr><tr><td><div><table><tr><td><div>Quick Examples</div></td></tr><tr><td><div>False</div></td></tr><tr><td><div>http://web2py.com/examples/default/examples</div></td></tr></table></div></td></tr><tr><td><div><table><tr><td><div>FAQ</div></td></tr><tr><td><div>False</div></td></tr><tr><td><div>http://web2py.com/AlterEgo</div></td></tr></table></div></td></tr><tr><td><div><table><tr><td><div>Videos</div></td></tr><tr><td><div>False</div></td></tr><tr><td><div>http://www.web2py.com/examples/default/videos/</div></td></tr></table></div></td></tr><tr><td><div><table><tr><td><div>Free Applications</div></td></tr><tr><td><div>False</div></td></tr><tr><td><div>http://web2py.com/appliances</div></td></tr></table></div></td></tr><tr><td><div><table><tr><td><div>Plugins</div></td></tr><tr><td><div>False</div></td></tr><tr><td><div>http://web2py.com/plugins</div></td></tr></table></div></td></tr><tr><td><div><table><tr><td><div>Recipes</div></td></tr><tr><td><div>False</div></td></tr><tr><td><div>http://web2pyslices.com/</div></td></tr></table></div></td></tr></table></div></td></tr></table></div></td></tr><tr><td><div><table><tr><td><div>Documentation</div></td></tr><tr><td><div>False</div></td></tr><tr><td><div>#</div></td></tr><tr><td><div><table><tr><td><div><table><tr><td><div>Online book</div></td></tr><tr><td><div>False</div></td></tr><tr><td><div>http://www.web2py.com/book</div></td></tr></table></div></td></tr><tr><td><div><li class="divider"></li></div></td></tr><tr><td><div><table><tr><td><div>Preface</div></td></tr><tr><td><div>False</div></td></tr><tr><td><div>http://www.web2py.com/book/default/chapter/00</div></td></tr></table></div></td></tr><tr><td><div><table><tr><td><div>Introduction</div></td></tr><tr><td><div>False</div></td></tr><tr><td><div>http://www.web2py.com/book/default/chapter/01</div></td></tr></table></div></td></tr><tr><td><div><table><tr><td><div>Python</div></td></tr><tr><td><div>False</div></td></tr><tr><td><div>http://www.web2py.com/book/default/chapter/02</div></td></tr></table></div></td></tr><tr><td><div><table><tr><td><div>Overview</div></td></tr><tr><td><div>False</div></td></tr><tr><td><div>http://www.web2py.com/book/default/chapter/03</div></td></tr></table></div></td></tr><tr><td><div><table><tr><td><div>The Core</div></td></tr><tr><td><div>False</div></td></tr><tr><td><div>http://www.web2py.com/book/default/chapter/04</div></td></tr></table></div></td></tr><tr><td><div><table><tr><td><div>The Views</div></td></tr><tr><td><div>False</div></td></tr><tr><td><div>http://www.web2py.com/book/default/chapter/05</div></td></tr></table></div></td></tr><tr><td><div><table><tr><td><div>Database</div></td></tr><tr><td><div>False</div></td></tr><tr><td><div>http://www.web2py.com/book/default/chapter/06</div></td></tr></table></div></td></tr><tr><td><div><table><tr><td><div>Forms and Validators</div></td></tr><tr><td><div>False</div></td></tr><tr><td><div>http://www.web2py.com/book/default/chapter/07</div></td></tr></table></div></td></tr><tr><td><div><table><tr><td><div>Email and SMS</div></td></tr><tr><td><div>False</div></td></tr><tr><td><div>http://www.web2py.com/book/default/chapter/08</div></td></tr></table></div></td></tr><tr><td><div><table><tr><td><div>Access Control</div></td></tr><tr><td><div>False</div></td></tr><tr><td><div>http://www.web2py.com/book/default/chapter/09</div></td></tr></table></div></td></tr><tr><td><div><table><tr><td><div>Services</div></td></tr><tr><td><div>False</div></td></tr><tr><td><div>http://www.web2py.com/book/default/chapter/10</div></td></tr></table></div></td></tr><tr><td><div><table><tr><td><div>Ajax Recipes</div></td></tr><tr><td><div>False</div></td></tr><tr><td><div>http://www.web2py.com/book/default/chapter/11</div></td></tr></table></div></td></tr><tr><td><div><table><tr><td><div>Components and Plugins</div></td></tr><tr><td><div>False</div></td></tr><tr><td><div>http://www.web2py.com/book/default/chapter/12</div></td></tr></table></div></td></tr><tr><td><div><table><tr><td><div>Deployment Recipes</div></td></tr><tr><td><div>False</div></td></tr><tr><td><div>http://www.web2py.com/book/default/chapter/13</div></td></tr></table></div></td></tr><tr><td><div><table><tr><td><div>Other Recipes</div></td></tr><tr><td><div>False</div></td></tr><tr><td><div>http://www.web2py.com/book/default/chapter/14</div></td></tr></table></div></td></tr><tr><td><div><table><tr><td><div>Helping web2py</div></td></tr><tr><td><div>False</div></td></tr><tr><td><div>http://www.web2py.com/book/default/chapter/15</div></td></tr></table></div></td></tr><tr><td><div><table><tr><td><div>Buy web2py\'s book</div></td></tr><tr><td><div>False</div></td></tr><tr><td><div>http://stores.lulu.com/web2py</div></td></tr></table></div></td></tr></table></div></td></tr></table></div></td></tr><tr><td><div><table><tr><td><div>Community</div></td></tr><tr><td><div>False</div></td></tr><tr><td><div>None</div></td></tr><tr><td><div><table><tr><td><div><table><tr><td><div>Groups</div></td></tr><tr><td><div>False</div></td></tr><tr><td><div>http://www.web2py.com/examples/default/usergroups</div></td></tr></table></div></td></tr><tr><td><div><table><tr><td><div>Twitter</div></td></tr><tr><td><div>False</div></td></tr><tr><td><div>http://twitter.com/web2py</div></td></tr></table></div></td></tr><tr><td><div><table><tr><td><div>Live Chat</div></td></tr><tr><td><div>False</div></td></tr><tr><td><div>http://webchat.freenode.net/?channels=web2py</div></td></tr></table></div></td></tr></table></div></td></tr></table></div></td></tr></table></div></td></tr><tr><td style="font-weight:bold;vertical-align:top;">meta</td><td style="vertical-align:top;">:</td><td><div><table><tr><td style="font-weight:bold;vertical-align:top;">author</td><td style="vertical-align:top;">:</td><td><div>Your Name &lt;you@example.com&gt;</div></td></tr><tr><td style="font-weight:bold;vertical-align:top;">description</td><td style="vertical-align:top;">:</td><td><div>a cool new app</div></td></tr><tr><td style="font-weight:bold;vertical-align:top;">generator</td><td style="vertical-align:top;">:</td><td><div>Web2py Web Framework</div></td></tr><tr><td style="font-weight:bold;vertical-align:top;">keywords</td><td style="vertical-align:top;">:</td><td><div>web2py, python, framework</div></td></tr></table></div></td></tr><tr><td style="font-weight:bold;vertical-align:top;">models_to_run</td><td style="vertical-align:top;">:</td><td><div><table><tr><td><div>^\\w+\\.py$</div></td></tr><tr><td><div>^default/\\w+\\.py$</div></td></tr><tr><td><div>^default/boards/\\w+\\.py$</div></td></tr></table></div></td></tr><tr><td style="font-weight:bold;vertical-align:top;">postprocessing</td><td style="vertical-align:top;">:</td><td><div><table></table></div></td></tr><tr><td style="font-weight:bold;vertical-align:top;">session_client</td><td style="vertical-align:top;">:</td><td><div>127.0.0.1</div></td></tr><tr><td style="font-weight:bold;vertical-align:top;">session_cookie_compression_level</td><td style="vertical-align:top;">:</td><td><div>None</div></td></tr><tr><td style="font-weight:bold;vertical-align:top;">session_cookie_expires</td><td style="vertical-align:top;">:</td><td><div>None</div></td></tr><tr><td style="font-weight:bold;vertical-align:top;">session_cookie_key</td><td style="vertical-align:top;">:</td><td><div>None</div></td></tr><tr><td style="font-weight:bold;vertical-align:top;">session_data_name</td><td style="vertical-align:top;">:</td><td><div>session_data_start1</div></td></tr><tr><td style="font-weight:bold;vertical-align:top;">session_file</td><td style="vertical-align:top;">:</td><td><div>&lt;open file &#x27;C:\\\\Users\\\\bryant\\\\Desktop\\\\web2py_src\\\\web2py\\\\applications\\\\start1\\\\sessions\\\\0da\\\\05d\\\\127.0.0.1-8d9ed00d-81ff-4b61-9ae6-849ede0c121f&#x27;, mode &#x27;rb+&#x27; at 0x00000000067A71E0&gt;</div></td></tr><tr><td style="font-weight:bold;vertical-align:top;">session_filename</td><td style="vertical-align:top;">:</td><td><div>C:\\Users\\bryant\\Desktop\\web2py_src\\web2py\\applications\\start1\\sessions\\127.0.0.1-8d9ed00d-81ff-4b61-9ae6-849ede0c121f</div></td></tr><tr><td style="font-weight:bold;vertical-align:top;">session_hash</td><td style="vertical-align:top;">:</td><td><div>e9bbcc2acdeae591e02cb950b1356be4</div></td></tr><tr><td style="font-weight:bold;vertical-align:top;">session_id</td><td style="vertical-align:top;">:</td><td><div>127.0.0.1-8d9ed00d-81ff-4b61-9ae6-849ede0c121f</div></td></tr><tr><td style="font-weight:bold;vertical-align:top;">session_id_name</td><td style="vertical-align:top;">:</td><td><div>session_id_start1</div></td></tr><tr><td style="font-weight:bold;vertical-align:top;">session_locked</td><td style="vertical-align:top;">:</td><td><div>True</div></td></tr><tr><td style="font-weight:bold;vertical-align:top;">session_masterapp</td><td style="vertical-align:top;">:</td><td><div>start1</div></td></tr><tr><td style="font-weight:bold;vertical-align:top;">session_new</td><td style="vertical-align:top;">:</td><td><div>False</div></td></tr><tr><td style="font-weight:bold;vertical-align:top;">session_storage_type</td><td style="vertical-align:top;">:</td><td><div>file</div></td></tr><tr><td style="font-weight:bold;vertical-align:top;">status</td><td style="vertical-align:top;">:</td><td><div>200</div></td></tr><tr><td style="font-weight:bold;vertical-align:top;">subtitle</td><td style="vertical-align:top;">:</td><td><div></div></td></tr><tr><td style="font-weight:bold;vertical-align:top;">title</td><td style="vertical-align:top;">:</td><td><div>Start1</div></td></tr><tr><td style="font-weight:bold;vertical-align:top;">view</td><td style="vertical-align:top;">:</td><td><div>default/boards.html</div></td></tr></table></div>'
tRp124
sS'locals'
p125
(dp126
S'get_text'
p127
S'<function get_text>'
p128
sS'FORMAT'
p129
S"'%(asctime)s %(levelname)s %(process)s %(thread)s %(funcName)s():%(lineno)d %(message)s'"
p130
sS'OBJECT'
p131
S"<class 'gluon.html.OBJECT'>"
p132
sS'datetime'
p133
S"<type 'datetime.datetime'>"
p134
sg117
S"<Storage {'_auth_next': None, 'flash': None, 'au...gin]': ['24e97d53-1991-410d-a849-2b9a20a53451']}>"
p135
sS'LINK'
p136
S"<class 'gluon.html.LINK'>"
p137
sS'BR'
p138
S"<class 'gluon.html.BR'>"
p139
sS'local_import'
p140
S'<function <lambda>>'
p141
sS'OPTGROUP'
p142
S"<class 'gluon.html.OPTGROUP'>"
p143
sS'icon_star'
p144
S'<gluon.html.I object>'
p145
sS'PRE'
p146
S"<class 'gluon.html.PRE'>"
p147
sS'IS_INT_IN_RANGE'
p148
S"<class 'gluon.validators.IS_INT_IN_RANGE'>"
p149
sS'left_sidebar_enabled'
p150
S'False'
p151
sS'Service'
p152
S"<class 'gluon.tools.Service'>"
p153
sS'IS_LOWER'
p154
S"<class 'gluon.validators.IS_LOWER'>"
p155
sS'IS_STRONG'
p156
S"<class 'gluon.validators.IS_STRONG'>"
p157
sS'cache'
p158
S'<gluon.cache.Cache object>'
p159
sS'IS_IN_DB'
p160
S"<class 'gluon.validators.IS_IN_DB'>"
p161
sS'TAG'
p162
S'<gluon.html.__TAG__ object>'
p163
sS'SQLField'
p164
S"<class 'pydal.objects.Field'>"
p165
sS'mail'
p166
S'<gluon.tools.Mail object>'
p167
sS'logger'
p168
S'<logging.Logger object>'
p169
sS'BODY'
p170
S"<class 'gluon.html.BODY'>"
p171
sS'IS_DATE_IN_RANGE'
p172
S"<class 'gluon.validators.IS_DATE_IN_RANGE'>"
p173
sS'icon_plus'
p174
S'<gluon.html.I object>'
p175
sS'IFRAME'
p176
S"<class 'gluon.html.IFRAME'>"
p177
sS'URL'
p178
S'<function URL>'
p179
sS'__file__'
p180
S"r'C:\\Users\\bryant\\Desktop\\web2py_src\\web2py\\applications\\start1\\views\\default/boards.html'"
p181
sS'db'
p182
S'<DAL uri="sqlite://storage.sqlite">'
p183
sS'auth'
p184
S'<gluon.tools.Auth object>'
p185
sS'P'
S"<class 'gluon.html.P'>"
p186
sS'TFOOT'
p187
S"<class 'gluon.html.TFOOT'>"
p188
sS'XHTML'
p189
S"<class 'gluon.html.XHTML'>"
p190
sS'db2'
p191
S'<DAL uri="sqlite://storage2.sqlite">'
p192
sS'ON'
p193
S'True'
p194
sS'OL'
p195
S"<class 'gluon.html.OL'>"
p196
sS'TEXTAREA'
p197
S"<class 'gluon.html.TEXTAREA'>"
p198
sS'MENU'
p199
S"<class 'gluon.html.MENU'>"
p200
sS'get_num_messages'
p201
S'<function get_num_messages>'
p202
sS'edit_board_form'
p203
S'<function edit_board_form>'
p204
sS'get_user_from_id'
p205
S'<function get_user_from_id>'
p206
sS'__package__'
p207
S'None'
p208
sS'IS_IMAGE'
p209
S"<class 'gluon.validators.IS_IMAGE'>"
p210
sS'EM'
p211
S"<class 'gluon.html.EM'>"
p212
sS'CODE'
p213
S"<class 'gluon.html.CODE'>"
p214
sS'HTTP'
p215
S"<class 'gluon.http.HTTP'>"
p216
sS'HR'
p217
S"<class 'gluon.html.HR'>"
p218
sS'IS_DATETIME'
p219
S"<class 'gluon.validators.IS_DATETIME'>"
p220
sS'STYLE'
p221
S"<class 'gluon.html.STYLE'>"
p222
sS'LABEL'
p223
S"<class 'gluon.html.LABEL'>"
p224
sS'CLEANUP'
p225
S"<class 'gluon.validators.CLEANUP'>"
p226
sS'plugins'
p227
S'<gluon.tools.PluginManager object>'
p228
sS'SELECT'
p229
S"<class 'gluon.html.SELECT'>"
p230
sS'icon_star_o'
p231
S'<gluon.html.I object>'
p232
sS'CENTER'
p233
S"<class 'gluon.html.CENTER'>"
p234
sS'Auth'
p235
S"<class 'gluon.tools.Auth'>"
p236
sS'DEVELOPMENT_MENU'
p237
g194
sS'__builtins__'
p238
S"{'ArithmeticError': <type 'exceptions.ArithmeticError'>, 'AssertionError': <type 'exceptions.AssertionError'>, 'AttributeError': <type 'exceptions.AttributeError'>, 'BaseException': <type 'exceptions.BaseException'>, 'BufferError': <type 'exceptions.BufferError'>, 'BytesWarning': <type 'exceptions.BytesWarning'>, 'DeprecationWarning': <type 'exceptions.DeprecationWarning'>, 'EOFError': <type 'exceptions.EOFError'>, 'Ellipsis': Ellipsis, 'EnvironmentError': <type 'exceptions.EnvironmentError'>, ...}"
p239
sS'HTML'
p240
S"<class 'gluon.html.HTML'>"
p241
sS'SQLFORM'
p242
S"<class 'gluon.sqlhtml.SQLFORM'>"
p243
sS'LOAD'
p244
S'<function LOAD>'
p245
sS'redirect'
p246
S'<function redirect>'
p247
sS'FIELDSET'
p248
S"<class 'gluon.html.FIELDSET'>"
p249
sS'IS_EQUAL_TO'
p250
S"<class 'gluon.validators.IS_EQUAL_TO'>"
p251
sS'embed64'
p252
S'<function embed64>'
p253
sS'IS_LIST_OF'
p254
S"<class 'gluon.validators.IS_LIST_OF'>"
p255
sS'INPUT'
p256
S"<class 'gluon.html.INPUT'>"
p257
sS'EMBED'
p258
S"<class 'gluon.html.EMBED'>"
p259
sS'_'
S'<function _>'
p260
sS'logging'
p261
S"<module 'logging' from 'C:\\Users\\bryant\\Anaconda\\lib\\logging\\__init__.pyc'>"
p262
sS'myconf'
p263
S"{'forms': {'formstyle': 'bootstrap3_inline', 'se...'you@gmail.com', 'server': 'smtp.gmail.com:587'}}"
p264
sS'H2'
p265
S"<class 'gluon.html.H2'>"
p266
sS'H3'
p267
S"<class 'gluon.html.H3'>"
p268
sS'AppConfig'
p269
S'<function AppConfig>'
p270
sS'H1'
p271
S"<class 'gluon.html.H1'>"
p272
sS'H6'
p273
S"<class 'gluon.html.H6'>"
p274
sS'H4'
p275
S"<class 'gluon.html.H4'>"
p276
sS'H5'
p277
S"<class 'gluon.html.H5'>"
p278
sS'UL'
p279
S"<class 'gluon.html.UL'>"
p280
sS'IS_UPPER'
p281
S"<class 'gluon.validators.IS_UPPER'>"
p282
sS'xmlescape'
p283
S'<function xmlescape>'
p284
sS'IS_TIME'
p285
S"<class 'gluon.validators.IS_TIME'>"
p286
sS'subtitle'
p287
S"'f'"
p288
sS'OPTION'
p289
S"<class 'gluon.html.OPTION'>"
p290
sS'TITLE'
p291
S"<class 'gluon.html.TITLE'>"
p292
sS'CRYPT'
p293
S"<class 'gluon.validators.CRYPT'>"
p294
sS'IS_EMPTY_OR'
p295
S"<class 'gluon.validators.IS_EMPTY_OR'>"
p296
sS'MARKMIN'
p297
S"<class 'gluon.html.MARKMIN'>"
p298
sS'__name__'
p299
S"'__restricted__'"
p300
sS'STRONG'
p301
S"<class 'gluon.html.STRONG'>"
p302
sS'COL'
p303
S"<class 'gluon.html.COL'>"
p304
sS'mc1'
p305
S"'col-md-9'"
p306
sS'mc0'
p307
S"'col-md-12'"
p308
sS'icon_circle_arrow_right'
p309
S'<gluon.html.I object>'
p310
sS'service'
p311
S'<gluon.tools.Service object>'
p312
sS'SCRIPT'
p313
S"<class 'gluon.html.SCRIPT'>"
p314
sS'TABLE'
p315
S"<class 'gluon.html.TABLE'>"
p316
sS'IS_IPV4'
p317
S"<class 'gluon.validators.IS_IPV4'>"
p318
sS'IS_LENGTH'
p319
S"<class 'gluon.validators.IS_LENGTH'>"
p320
sS'IS_IPV6'
p321
S"<class 'gluon.validators.IS_IPV6'>"
p322
sS'XML'
p323
S"<class 'gluon.html.XML'>"
p324
sS'icon_circle_arrow_left'
p325
S'<gluon.html.I object>'
p326
sS'B'
S"<class 'gluon.html.B'>"
p327
sS'IMG'
p328
S"<class 'gluon.html.IMG'>"
p329
sS'SQLTABLE'
p330
S"<class 'gluon.sqlhtml.SQLTABLE'>"
p331
sS'IS_MATCH'
p332
S"<class 'gluon.validators.IS_MATCH'>"
p333
sS'IS_ALPHANUMERIC'
p334
S"<class 'gluon.validators.IS_ALPHANUMERIC'>"
p335
sS'totalmessages'
p336
S'1'
sS'SPAN'
p337
S"<class 'gluon.html.SPAN'>"
p338
sS'IS_JSON'
p339
S"<class 'gluon.validators.IS_JSON'>"
p340
sS'IS_IPADDRESS'
p341
S"<class 'gluon.validators.IS_IPADDRESS'>"
p342
sS'IS_SLUG'
p343
S"<class 'gluon.validators.IS_SLUG'>"
p344
sS'BEAUTIFY'
p345
S"<class 'gluon.html.BEAUTIFY'>"
p346
sS'META'
p347
S"<class 'gluon.html.META'>"
p348
sS'get_board_message_today_count'
p349
S'<function get_board_message_today_count>'
p350
sS'SQLDB'
p351
S"<class 'pydal.base.DAL'>"
p352
sS'BUTTON'
p353
S"<class 'gluon.html.BUTTON'>"
p354
sS'IS_DATE'
p355
S"<class 'gluon.validators.IS_DATE'>"
p356
sS'IS_EMAIL'
p357
S"<class 'gluon.validators.IS_EMAIL'>"
p358
sS'middle_column'
p359
S"'col-md-12'"
p360
sS'IS_NOT_EMPTY'
p361
S"<class 'gluon.validators.IS_NOT_EMPTY'>"
p362
sS'IS_FLOAT_IN_RANGE'
p363
S"<class 'gluon.validators.IS_FLOAT_IN_RANGE'>"
p364
sS'TBODY'
p365
S"<class 'gluon.html.TBODY'>"
p366
sS'CAT'
p367
S"<class 'gluon.html.CAT'>"
p368
sS'Field'
p369
S"<class 'pydal.objects.Field'>"
p370
sS'mc2'
p371
S"'col-md-6'"
p372
sS'IS_LIST_OF_EMAILS'
p373
S"<class 'gluon.validators.IS_LIST_OF_EMAILS'>"
p374
sS'LEGEND'
p375
S"<class 'gluon.html.LEGEND'>"
p376
sS'DIV'
p377
S"<class 'gluon.html.DIV'>"
p378
sS'id'
p379
S"'6'"
p380
sS'COLGROUP'
p381
S"<class 'gluon.html.COLGROUP'>"
p382
sS'DAL'
p383
S"<class 'pydal.base.DAL'>"
p384
sS'ASSIGNJS'
p385
S'<function ASSIGNJS>'
p386
sS'TR'
p387
S"<class 'gluon.html.TR'>"
p388
sS'LI'
p389
S"<class 'gluon.html.LI'>"
p390
sS'right_sidebar_enabled'
p391
g151
sS'TH'
p392
S"<class 'gluon.html.TH'>"
p393
sS'TD'
p394
S"<class 'gluon.html.TD'>"
p395
sS'PluginManager'
p396
S"<class 'gluon.tools.PluginManager'>"
p397
sS'IS_URL'
p398
S"<class 'gluon.validators.IS_URL'>"
p399
sS'A'
S"<class 'gluon.html.A'>"
p400
sS'HEAD'
p401
S"<class 'gluon.html.HEAD'>"
p402
sS'IS_DATETIME_IN_RANGE'
p403
S"<class 'gluon.validators.IS_DATETIME_IN_RANGE'>"
p404
sS'FORM'
p405
S"<class 'gluon.html.FORM'>"
p406
sS'I'
S"<class 'gluon.html.I'>"
p407
sS'icon_trash'
p408
S'<gluon.html.I object>'
p409
sS'edit_message_form'
p410
S'<function edit_message_form>'
p411
sS'icon_pencil'
p412
S'<gluon.html.I object>'
p413
sS'sys'
p414
S"<module 'sys' (built-in)>"
p415
sS'IS_NOT_IN_DB'
p416
S"<class 'gluon.validators.IS_NOT_IN_DB'>"
p417
sg121
S"<type 'datetime.date'>"
p418
sg123
S"<Storage {'body': <cStringIO.StringO object at 0...0000000089EDB38>, 'view': 'default/boards.html'}>"
p419
sS'THEAD'
p420
S"<class 'gluon.html.THEAD'>"
p421
sS'ANY_OF'
p422
S"<class 'gluon.validators.ANY_OF'>"
p423
sS'IS_NULL_OR'
p424
S"<class 'gluon.validators.IS_EMPTY_OR'>"
p425
sg56
S"<Storage {'_vars': <Storage {}>, 'function': 'bo...op\\\\web2py_src\\\\web2py\\\\applications\\\\start1\\\\'}>"
p426
sS'IS_EXPR'
p427
S"<class 'gluon.validators.IS_EXPR'>"
p428
sS'T'
S'<gluon.languages.translator object>'
p429
sS'IS_IN_SET'
p430
S"<class 'gluon.validators.IS_IN_SET'>"
p431
sS'IS_UPLOAD_FILENAME'
p432
S"<class 'gluon.validators.IS_UPLOAD_FILENAME'>"
p433
sS'title'
p434
S"'f'"
p435
sS'TT'
p436
S"<class 'gluon.html.TT'>"
p437
sS'IS_DECIMAL_IN_RANGE'
p438
S"<class 'gluon.validators.IS_DECIMAL_IN_RANGE'>"
p439
sssS'traceback'
p440
S'Traceback (most recent call last):\n  File "C:\\Users\\bryant\\Desktop\\web2py_src\\web2py\\gluon\\restricted.py", line 227, in restricted\n    exec ccode in environment\n  File "C:\\Users\\bryant\\Desktop\\web2py_src\\web2py\\applications\\start1\\views\\default/boards.html", line 111, in <module>\n    </div>\nNameError: name \'picture_name\' is not defined\n'
p441
s.